
obj/boot/boot1.elf:     file format elf32-i386


Disassembly of section .text:

00007e00 <start>:
    .globl start
 start:
    /* assemble the following instructions in 16-bit mode */
    .code16

    cli
    7e00:	fa                   	cli    
    cld
    7e01:	fc                   	cld    
    ***************************************************************************/

    /* TODO: PRINT STARTUP MESSAGE HERE */
    
    /*Setup normal video mode (80 x 25 text), and print a start up message (STARTUP_MSG)*/
    movb $0xe, %ah 
    7e02:	b4 0e                	mov    $0xe,%ah
    mov  $STARTUP_MSG , %si
    7e04:	be a3 7e e8 8f       	mov    $0x8fe87ea3,%esi
    call Print_Char
    7e09:	00                 	add    %ah,%ah

00007e0a <seta20.1>:
    /* enable A20
     * This is done because of a quirk in the x86 architecture.
     * See http://wiki.osdev.org/A20 for more information.
     */
seta20.1:
    inb    $0x64, %al
    7e0a:	e4 64                	in     $0x64,%al
    testb    $0x2, %al
    7e0c:	a8 02                	test   $0x2,%al
    jnz    seta20.1
    7e0e:	75 fa                	jne    7e0a <seta20.1>
    movb    $0xd1, %al
    7e10:	b0 d1                	mov    $0xd1,%al
    outb    %al, $0x64
    7e12:	e6 64                	out    %al,$0x64

00007e14 <seta20.2>:
seta20.2:
    inb    $0x64, %al
    7e14:	e4 64                	in     $0x64,%al
    testb    $0x2, %al
    7e16:	a8 02                	test   $0x2,%al
    jnz    seta20.2
    7e18:	75 fa                	jne    7e14 <seta20.2>
    movb    $0xdf, %al
    7e1a:	b0 df                	mov    $0xdf,%al
    outb    %al, $0x60
    7e1c:	e6 60                	out    %al,$0x60

00007e1e <e820>:
     * memory is usable, reserved, or possibly bad.
     *
     * For more information: http://wiki.osdev.org/Detecting_Memory_(x86)
     */
e820:
    xorl    %ebx, %ebx        # ebx must be 0 when first calling e820
    7e1e:	66 31 db             	xor    %bx,%bx
    movl    $SMAP_SIG, %edx   # edx must be 'SMAP' when calling e820
    7e21:	66 ba 50 41          	mov    $0x4150,%dx
    7e25:	4d                   	dec    %ebp
    7e26:	53                   	push   %ebx
    movw    $(smap+4), %di    # set the address of the output buffer
    7e27:	bf 12 7f         	mov    $0xb9667f12,%edi

00007e2a <e820.1>:
e820.1:
    movl    $20, %ecx         # set the size of the output buffer
    7e2a:	66 b9 14 00          	mov    $0x14,%cx
    7e2e:	00 00                	add    %al,(%eax)
    movl    $0xe820, %eax     # set the BIOS service code
    7e30:	66 b8 20 e8          	mov    $0xe820,%ax
    7e34:	00 00                	add    %al,(%eax)
    int    $0x15              # call BIOS service e820h
    7e36:	cd 15                	int    $0x15

00007e38 <e820.2>:
e820.2:
    jc    e820.fail           # error during e820h
    7e38:	72 24                	jb     7e5e <e820.fail>
    cmpl    $SMAP_SIG, %eax   # check eax, which should be 'SMAP'
    7e3a:	66 3d 50 41          	cmp    $0x4150,%ax
    7e3e:	4d                   	dec    %ebp
    7e3f:	53                   	push   %ebx
    jne    e820.fail
    7e40:	75 1c                	jne    7e5e <e820.fail>

00007e42 <e820.3>:
e820.3:
    movl    $20, -4(%di)
    7e42:	66 c7 45 fc 14 00    	movw   $0x14,-0x4(%ebp)
    7e48:	00 00                	add    %al,(%eax)
    addw    $24, %di
    7e4a:	83 c7 18             	add    $0x18,%edi
    cmpl    $0x0, %ebx        # whether it's the last descriptor
    7e4d:	66 83 fb 00          	cmp    $0x0,%bx
    je    e820.4
    7e51:	74 02                	je     7e55 <e820.4>
    jmp    e820.1
    7e53:	eb d5                	jmp    7e2a <e820.1>

00007e55 <e820.4>:
e820.4:                       # zero the descriptor after the last one
    xorb    %al, %al
    7e55:	30 c0                	xor    %al,%al
    movw    $20, %cx
    7e57:	b9 14 00 f3 aa       	mov    $0xaaf30014,%ecx
    rep    stosb
    jmp    switch_prot
    7e5c:	eb 09                	jmp    7e67 <switch_prot>

00007e5e <e820.fail>:
e820.fail:
    /***************************************************************************
     * TODO: PRINT FAILURE MESSAGE HERE
     **************************************************************************/
    /*Setup normal video mode (80 x 25 text), and print a FAILURE message (E820_FAIL_MSG)*/
    movb $0xe, %ah 
    7e5e:	b4 0e                	mov    $0xe,%ah
    mov  $E820_FAIL_MSG , %si
    7e60:	be b5 7e e8 33       	mov    $0x33e87eb5,%esi
    call Print_Char
    7e65:	00                 	add    %dh,%ah

00007e66 <spin16>:
    

spin16:
    hlt
    7e66:	f4                   	hlt    

00007e67 <switch_prot>:
    /***************************************************************************
    *TODO: SETUP JUMP TO PROTECTED MODE
    ***************************************************************************/

    /*  Configure the CPU to use GDT*/
    lgdt gdtdesc      
    7e67:	0f 01 16             	lgdtl  (%esi)
    7e6a:	08 7f 0f             	or     %bh,0xf(%edi)
    
    /*step 4.1 Switch CPU to protected mode */
    movl %cr0,%eax
    7e6d:	20 c0                	and    %al,%al
    xor $0x1, %eax
    7e6f:	66 83 f0 01          	xor    $0x1,%ax
    movl %eax, %cr0
    7e73:	0f 22 c0             	mov    %eax,%cr0
    
    /*step 4.2 issue a long jump */

    ljmp $PROT_MODE_CSEG, $desc
    7e76:	ea 7b 7e 08 00   	ljmp   $0xbb66,$0x87e7b

00007e7b <desc>:
    * YOUR 32-bit mode code here
    ***************************************************************************/

    /*step 4.3 set up the rest of the segment registers to (data segment entry in the GDT)*/

    mov $PROT_MODE_DSEG , %bx
    7e7b:	66 bb 10 00          	mov    $0x10,%bx
    mov %bx , %ds
    7e7f:	8e db                	mov    %ebx,%ds
    mov %bx , %es
    7e81:	8e c3                	mov    %ebx,%es
    mov %bx , %fs
    7e83:	8e e3                	mov    %ebx,%fs
    mov %bx , %gs
    7e85:	8e eb                	mov    %ebx,%gs
    mov %bx , %ss
    7e87:	8e d3                	mov    %ebx,%ss

    pushl $smap
    7e89:	68 0e 7f 00 00       	push   $0x7f0e
    pushl $0x7c00
    7e8e:	68 00 7c 00 00       	push   $0x7c00
    call boot1main
    7e93:	e8 1e 10 00 00       	call   8eb6 <boot1main>

00007e98 <spin>:

    /* It shall never reach here! */
spin:
    hlt
    7e98:	f4                   	hlt    

00007e99 <Print_Char>:

    /*printout a character function by myself*/
    .globl Print_Char
Print_Char:
    lodsb
    7e99:	ac                   	lods   %ds:(%esi),%al
    cmp $0, %al
    7e9a:	3c 00                	cmp    $0x0,%al
    je done
    7e9c:	74 04                	je     7ea2 <done>
    int $0x10
    7e9e:	cd 10                	int    $0x10
    jmp Print_Char
    7ea0:	eb f7                	jmp    7e99 <Print_Char>

00007ea2 <done>:
done:
    ret
    7ea2:	c3                   	ret    

00007ea3 <STARTUP_MSG>:
    7ea3:	53                   	push   %ebx
    7ea4:	74 61                	je     7f07 <gdt+0x17>
    7ea6:	72 74                	jb     7f1c <smap+0xe>
    7ea8:	20 62 6f             	and    %ah,0x6f(%edx)
    7eab:	6f                   	outsl  %ds:(%esi),(%dx)
    7eac:	74 31                	je     7edf <NO_BOOTABLE_MSG+0x8>
    7eae:	20 2e                	and    %ch,(%esi)
    7eb0:	2e 2e 0d 0a 00   	cs cs or $0x7265000a,%eax

00007eb5 <E820_FAIL_MSG>:
    7eb5:	65 72 72             	gs jb  7f2a <smap+0x1c>
    7eb8:	6f                   	outsl  %ds:(%esi),(%dx)
    7eb9:	72 20                	jb     7edb <NO_BOOTABLE_MSG+0x4>
    7ebb:	77 68                	ja     7f25 <smap+0x17>
    7ebd:	65 6e                	outsb  %gs:(%esi),(%dx)
    7ebf:	20 64 65 74          	and    %ah,0x74(%ebp,%eiz,2)
    7ec3:	65 63 74 69 6e       	arpl   %si,%gs:0x6e(%ecx,%ebp,2)
    7ec8:	67 20 6d 65          	and    %ch,0x65(%di)
    7ecc:	6d                   	insl   (%dx),%es:(%edi)
    7ecd:	6f                   	outsl  %ds:(%esi),(%dx)
    7ece:	72 79                	jb     7f49 <smap+0x3b>
    7ed0:	20 6d 61             	and    %ch,0x61(%ebp)
    7ed3:	70 0d                	jo     7ee2 <NO_BOOTABLE_MSG+0xb>
    7ed5:	0a 00                	or     (%eax),%al

00007ed7 <NO_BOOTABLE_MSG>:
    7ed7:	4e                   	dec    %esi
    7ed8:	6f                   	outsl  %ds:(%esi),(%dx)
    7ed9:	20 62 6f             	and    %ah,0x6f(%edx)
    7edc:	6f                   	outsl  %ds:(%esi),(%dx)
    7edd:	74 61                	je     7f40 <smap+0x32>
    7edf:	62 6c 65 20          	bound  %ebp,0x20(%ebp,%eiz,2)
    7ee3:	70 61                	jo     7f46 <smap+0x38>
    7ee5:	72 74                	jb     7f5b <smap+0x4d>
    7ee7:	69 74 69 6f 6e 2e 0d 	imul   $0xa0d2e6e,0x6f(%ecx,%ebp,2),%esi
    7eee:	0a 
    7eef:	00                 	add    %al,(%eax)

00007ef0 <gdt>:
    7ef0:	00 00                	add    %al,(%eax)
    7ef2:	00 00                	add    %al,(%eax)
    7ef4:	00 00                	add    %al,(%eax)
    7ef6:	00 00                	add    %al,(%eax)
    7ef8:	ff                   	(bad)  
    7ef9:	ff 00                	incl   (%eax)
    7efb:	00 00                	add    %al,(%eax)
    7efd:	9a cf 00 ff ff 00 00 	lcall  $0x0,$0xffff00cf
    7f04:	00 92 cf 00      	add    %dl,0x2700cf(%edx)

00007f08 <gdtdesc>:
    7f08:	27                   	daa    
    7f09:	00 f0                	add    %dh,%al
    7f0b:	7e 00                	jle    7f0d <gdtdesc+0x5>
    7f0d:	00                 	add    %al,(%eax)

00007f0e <smap>:
    7f0e:	00 00                	add    %al,(%eax)
    7f10:	00 00                	add    %al,(%eax)
    7f12:	00 00                	add    %al,(%eax)
    7f14:	00 00                	add    %al,(%eax)
    7f16:	00 00                	add    %al,(%eax)
    7f18:	00 00                	add    %al,(%eax)
    7f1a:	00 00                	add    %al,(%eax)
    7f1c:	00 00                	add    %al,(%eax)
    7f1e:	00 00                	add    %al,(%eax)
    7f20:	00 00                	add    %al,(%eax)
    7f22:	00 00                	add    %al,(%eax)
    7f24:	00 00                	add    %al,(%eax)
    7f26:	00 00                	add    %al,(%eax)
    7f28:	00 00                	add    %al,(%eax)
    7f2a:	00 00                	add    %al,(%eax)
    7f2c:	00 00                	add    %al,(%eax)
    7f2e:	00 00                	add    %al,(%eax)
    7f30:	00 00                	add    %al,(%eax)
    7f32:	00 00                	add    %al,(%eax)
    7f34:	00 00                	add    %al,(%eax)
    7f36:	00 00                	add    %al,(%eax)
    7f38:	00 00                	add    %al,(%eax)
    7f3a:	00 00                	add    %al,(%eax)
    7f3c:	00 00                	add    %al,(%eax)
    7f3e:	00 00                	add    %al,(%eax)
    7f40:	00 00                	add    %al,(%eax)
    7f42:	00 00                	add    %al,(%eax)
    7f44:	00 00                	add    %al,(%eax)
    7f46:	00 00                	add    %al,(%eax)
    7f48:	00 00                	add    %al,(%eax)
    7f4a:	00 00                	add    %al,(%eax)
    7f4c:	00 00                	add    %al,(%eax)
    7f4e:	00 00                	add    %al,(%eax)
    7f50:	00 00                	add    %al,(%eax)
    7f52:	00 00                	add    %al,(%eax)
    7f54:	00 00                	add    %al,(%eax)
    7f56:	00 00                	add    %al,(%eax)
    7f58:	00 00                	add    %al,(%eax)
    7f5a:	00 00                	add    %al,(%eax)
    7f5c:	00 00                	add    %al,(%eax)
    7f5e:	00 00                	add    %al,(%eax)
    7f60:	00 00                	add    %al,(%eax)
    7f62:	00 00                	add    %al,(%eax)
    7f64:	00 00                	add    %al,(%eax)
    7f66:	00 00                	add    %al,(%eax)
    7f68:	00 00                	add    %al,(%eax)
    7f6a:	00 00                	add    %al,(%eax)
    7f6c:	00 00                	add    %al,(%eax)
    7f6e:	00 00                	add    %al,(%eax)
    7f70:	00 00                	add    %al,(%eax)
    7f72:	00 00                	add    %al,(%eax)
    7f74:	00 00                	add    %al,(%eax)
    7f76:	00 00                	add    %al,(%eax)
    7f78:	00 00                	add    %al,(%eax)
    7f7a:	00 00                	add    %al,(%eax)
    7f7c:	00 00                	add    %al,(%eax)
    7f7e:	00 00                	add    %al,(%eax)
    7f80:	00 00                	add    %al,(%eax)
    7f82:	00 00                	add    %al,(%eax)
    7f84:	00 00                	add    %al,(%eax)
    7f86:	00 00                	add    %al,(%eax)
    7f88:	00 00                	add    %al,(%eax)
    7f8a:	00 00                	add    %al,(%eax)
    7f8c:	00 00                	add    %al,(%eax)
    7f8e:	00 00                	add    %al,(%eax)
    7f90:	00 00                	add    %al,(%eax)
    7f92:	00 00                	add    %al,(%eax)
    7f94:	00 00                	add    %al,(%eax)
    7f96:	00 00                	add    %al,(%eax)
    7f98:	00 00                	add    %al,(%eax)
    7f9a:	00 00                	add    %al,(%eax)
    7f9c:	00 00                	add    %al,(%eax)
    7f9e:	00 00                	add    %al,(%eax)
    7fa0:	00 00                	add    %al,(%eax)
    7fa2:	00 00                	add    %al,(%eax)
    7fa4:	00 00                	add    %al,(%eax)
    7fa6:	00 00                	add    %al,(%eax)
    7fa8:	00 00                	add    %al,(%eax)
    7faa:	00 00                	add    %al,(%eax)
    7fac:	00 00                	add    %al,(%eax)
    7fae:	00 00                	add    %al,(%eax)
    7fb0:	00 00                	add    %al,(%eax)
    7fb2:	00 00                	add    %al,(%eax)
    7fb4:	00 00                	add    %al,(%eax)
    7fb6:	00 00                	add    %al,(%eax)
    7fb8:	00 00                	add    %al,(%eax)
    7fba:	00 00                	add    %al,(%eax)
    7fbc:	00 00                	add    %al,(%eax)
    7fbe:	00 00                	add    %al,(%eax)
    7fc0:	00 00                	add    %al,(%eax)
    7fc2:	00 00                	add    %al,(%eax)
    7fc4:	00 00                	add    %al,(%eax)
    7fc6:	00 00                	add    %al,(%eax)
    7fc8:	00 00                	add    %al,(%eax)
    7fca:	00 00                	add    %al,(%eax)
    7fcc:	00 00                	add    %al,(%eax)
    7fce:	00 00                	add    %al,(%eax)
    7fd0:	00 00                	add    %al,(%eax)
    7fd2:	00 00                	add    %al,(%eax)
    7fd4:	00 00                	add    %al,(%eax)
    7fd6:	00 00                	add    %al,(%eax)
    7fd8:	00 00                	add    %al,(%eax)
    7fda:	00 00                	add    %al,(%eax)
    7fdc:	00 00                	add    %al,(%eax)
    7fde:	00 00                	add    %al,(%eax)
    7fe0:	00 00                	add    %al,(%eax)
    7fe2:	00 00                	add    %al,(%eax)
    7fe4:	00 00                	add    %al,(%eax)
    7fe6:	00 00                	add    %al,(%eax)
    7fe8:	00 00                	add    %al,(%eax)
    7fea:	00 00                	add    %al,(%eax)
    7fec:	00 00                	add    %al,(%eax)
    7fee:	00 00                	add    %al,(%eax)
    7ff0:	00 00                	add    %al,(%eax)
    7ff2:	00 00                	add    %al,(%eax)
    7ff4:	00 00                	add    %al,(%eax)
    7ff6:	00 00                	add    %al,(%eax)
    7ff8:	00 00                	add    %al,(%eax)
    7ffa:	00 00                	add    %al,(%eax)
    7ffc:	00 00                	add    %al,(%eax)
    7ffe:	00 00                	add    %al,(%eax)
    8000:	00 00                	add    %al,(%eax)
    8002:	00 00                	add    %al,(%eax)
    8004:	00 00                	add    %al,(%eax)
    8006:	00 00                	add    %al,(%eax)
    8008:	00 00                	add    %al,(%eax)
    800a:	00 00                	add    %al,(%eax)
    800c:	00 00                	add    %al,(%eax)
    800e:	00 00                	add    %al,(%eax)
    8010:	00 00                	add    %al,(%eax)
    8012:	00 00                	add    %al,(%eax)
    8014:	00 00                	add    %al,(%eax)
    8016:	00 00                	add    %al,(%eax)
    8018:	00 00                	add    %al,(%eax)
    801a:	00 00                	add    %al,(%eax)
    801c:	00 00                	add    %al,(%eax)
    801e:	00 00                	add    %al,(%eax)
    8020:	00 00                	add    %al,(%eax)
    8022:	00 00                	add    %al,(%eax)
    8024:	00 00                	add    %al,(%eax)
    8026:	00 00                	add    %al,(%eax)
    8028:	00 00                	add    %al,(%eax)
    802a:	00 00                	add    %al,(%eax)
    802c:	00 00                	add    %al,(%eax)
    802e:	00 00                	add    %al,(%eax)
    8030:	00 00                	add    %al,(%eax)
    8032:	00 00                	add    %al,(%eax)
    8034:	00 00                	add    %al,(%eax)
    8036:	00 00                	add    %al,(%eax)
    8038:	00 00                	add    %al,(%eax)
    803a:	00 00                	add    %al,(%eax)
    803c:	00 00                	add    %al,(%eax)
    803e:	00 00                	add    %al,(%eax)
    8040:	00 00                	add    %al,(%eax)
    8042:	00 00                	add    %al,(%eax)
    8044:	00 00                	add    %al,(%eax)
    8046:	00 00                	add    %al,(%eax)
    8048:	00 00                	add    %al,(%eax)
    804a:	00 00                	add    %al,(%eax)
    804c:	00 00                	add    %al,(%eax)
    804e:	00 00                	add    %al,(%eax)
    8050:	00 00                	add    %al,(%eax)
    8052:	00 00                	add    %al,(%eax)
    8054:	00 00                	add    %al,(%eax)
    8056:	00 00                	add    %al,(%eax)
    8058:	00 00                	add    %al,(%eax)
    805a:	00 00                	add    %al,(%eax)
    805c:	00 00                	add    %al,(%eax)
    805e:	00 00                	add    %al,(%eax)
    8060:	00 00                	add    %al,(%eax)
    8062:	00 00                	add    %al,(%eax)
    8064:	00 00                	add    %al,(%eax)
    8066:	00 00                	add    %al,(%eax)
    8068:	00 00                	add    %al,(%eax)
    806a:	00 00                	add    %al,(%eax)
    806c:	00 00                	add    %al,(%eax)
    806e:	00 00                	add    %al,(%eax)
    8070:	00 00                	add    %al,(%eax)
    8072:	00 00                	add    %al,(%eax)
    8074:	00 00                	add    %al,(%eax)
    8076:	00 00                	add    %al,(%eax)
    8078:	00 00                	add    %al,(%eax)
    807a:	00 00                	add    %al,(%eax)
    807c:	00 00                	add    %al,(%eax)
    807e:	00 00                	add    %al,(%eax)
    8080:	00 00                	add    %al,(%eax)
    8082:	00 00                	add    %al,(%eax)
    8084:	00 00                	add    %al,(%eax)
    8086:	00 00                	add    %al,(%eax)
    8088:	00 00                	add    %al,(%eax)
    808a:	00 00                	add    %al,(%eax)
    808c:	00 00                	add    %al,(%eax)
    808e:	00 00                	add    %al,(%eax)
    8090:	00 00                	add    %al,(%eax)
    8092:	00 00                	add    %al,(%eax)
    8094:	00 00                	add    %al,(%eax)
    8096:	00 00                	add    %al,(%eax)
    8098:	00 00                	add    %al,(%eax)
    809a:	00 00                	add    %al,(%eax)
    809c:	00 00                	add    %al,(%eax)
    809e:	00 00                	add    %al,(%eax)
    80a0:	00 00                	add    %al,(%eax)
    80a2:	00 00                	add    %al,(%eax)
    80a4:	00 00                	add    %al,(%eax)
    80a6:	00 00                	add    %al,(%eax)
    80a8:	00 00                	add    %al,(%eax)
    80aa:	00 00                	add    %al,(%eax)
    80ac:	00 00                	add    %al,(%eax)
    80ae:	00 00                	add    %al,(%eax)
    80b0:	00 00                	add    %al,(%eax)
    80b2:	00 00                	add    %al,(%eax)
    80b4:	00 00                	add    %al,(%eax)
    80b6:	00 00                	add    %al,(%eax)
    80b8:	00 00                	add    %al,(%eax)
    80ba:	00 00                	add    %al,(%eax)
    80bc:	00 00                	add    %al,(%eax)
    80be:	00 00                	add    %al,(%eax)
    80c0:	00 00                	add    %al,(%eax)
    80c2:	00 00                	add    %al,(%eax)
    80c4:	00 00                	add    %al,(%eax)
    80c6:	00 00                	add    %al,(%eax)
    80c8:	00 00                	add    %al,(%eax)
    80ca:	00 00                	add    %al,(%eax)
    80cc:	00 00                	add    %al,(%eax)
    80ce:	00 00                	add    %al,(%eax)
    80d0:	00 00                	add    %al,(%eax)
    80d2:	00 00                	add    %al,(%eax)
    80d4:	00 00                	add    %al,(%eax)
    80d6:	00 00                	add    %al,(%eax)
    80d8:	00 00                	add    %al,(%eax)
    80da:	00 00                	add    %al,(%eax)
    80dc:	00 00                	add    %al,(%eax)
    80de:	00 00                	add    %al,(%eax)
    80e0:	00 00                	add    %al,(%eax)
    80e2:	00 00                	add    %al,(%eax)
    80e4:	00 00                	add    %al,(%eax)
    80e6:	00 00                	add    %al,(%eax)
    80e8:	00 00                	add    %al,(%eax)
    80ea:	00 00                	add    %al,(%eax)
    80ec:	00 00                	add    %al,(%eax)
    80ee:	00 00                	add    %al,(%eax)
    80f0:	00 00                	add    %al,(%eax)
    80f2:	00 00                	add    %al,(%eax)
    80f4:	00 00                	add    %al,(%eax)
    80f6:	00 00                	add    %al,(%eax)
    80f8:	00 00                	add    %al,(%eax)
    80fa:	00 00                	add    %al,(%eax)
    80fc:	00 00                	add    %al,(%eax)
    80fe:	00 00                	add    %al,(%eax)
    8100:	00 00                	add    %al,(%eax)
    8102:	00 00                	add    %al,(%eax)
    8104:	00 00                	add    %al,(%eax)
    8106:	00 00                	add    %al,(%eax)
    8108:	00 00                	add    %al,(%eax)
    810a:	00 00                	add    %al,(%eax)
    810c:	00 00                	add    %al,(%eax)
    810e:	00 00                	add    %al,(%eax)
    8110:	00 00                	add    %al,(%eax)
    8112:	00 00                	add    %al,(%eax)
    8114:	00 00                	add    %al,(%eax)
    8116:	00 00                	add    %al,(%eax)
    8118:	00 00                	add    %al,(%eax)
    811a:	00 00                	add    %al,(%eax)
    811c:	00 00                	add    %al,(%eax)
    811e:	00 00                	add    %al,(%eax)
    8120:	00 00                	add    %al,(%eax)
    8122:	00 00                	add    %al,(%eax)
    8124:	00 00                	add    %al,(%eax)
    8126:	00 00                	add    %al,(%eax)
    8128:	00 00                	add    %al,(%eax)
    812a:	00 00                	add    %al,(%eax)
    812c:	00 00                	add    %al,(%eax)
    812e:	00 00                	add    %al,(%eax)
    8130:	00 00                	add    %al,(%eax)
    8132:	00 00                	add    %al,(%eax)
    8134:	00 00                	add    %al,(%eax)
    8136:	00 00                	add    %al,(%eax)
    8138:	00 00                	add    %al,(%eax)
    813a:	00 00                	add    %al,(%eax)
    813c:	00 00                	add    %al,(%eax)
    813e:	00 00                	add    %al,(%eax)
    8140:	00 00                	add    %al,(%eax)
    8142:	00 00                	add    %al,(%eax)
    8144:	00 00                	add    %al,(%eax)
    8146:	00 00                	add    %al,(%eax)
    8148:	00 00                	add    %al,(%eax)
    814a:	00 00                	add    %al,(%eax)
    814c:	00 00                	add    %al,(%eax)
    814e:	00 00                	add    %al,(%eax)
    8150:	00 00                	add    %al,(%eax)
    8152:	00 00                	add    %al,(%eax)
    8154:	00 00                	add    %al,(%eax)
    8156:	00 00                	add    %al,(%eax)
    8158:	00 00                	add    %al,(%eax)
    815a:	00 00                	add    %al,(%eax)
    815c:	00 00                	add    %al,(%eax)
    815e:	00 00                	add    %al,(%eax)
    8160:	00 00                	add    %al,(%eax)
    8162:	00 00                	add    %al,(%eax)
    8164:	00 00                	add    %al,(%eax)
    8166:	00 00                	add    %al,(%eax)
    8168:	00 00                	add    %al,(%eax)
    816a:	00 00                	add    %al,(%eax)
    816c:	00 00                	add    %al,(%eax)
    816e:	00 00                	add    %al,(%eax)
    8170:	00 00                	add    %al,(%eax)
    8172:	00 00                	add    %al,(%eax)
    8174:	00 00                	add    %al,(%eax)
    8176:	00 00                	add    %al,(%eax)
    8178:	00 00                	add    %al,(%eax)
    817a:	00 00                	add    %al,(%eax)
    817c:	00 00                	add    %al,(%eax)
    817e:	00 00                	add    %al,(%eax)
    8180:	00 00                	add    %al,(%eax)
    8182:	00 00                	add    %al,(%eax)
    8184:	00 00                	add    %al,(%eax)
    8186:	00 00                	add    %al,(%eax)
    8188:	00 00                	add    %al,(%eax)
    818a:	00 00                	add    %al,(%eax)
    818c:	00 00                	add    %al,(%eax)
    818e:	00 00                	add    %al,(%eax)
    8190:	00 00                	add    %al,(%eax)
    8192:	00 00                	add    %al,(%eax)
    8194:	00 00                	add    %al,(%eax)
    8196:	00 00                	add    %al,(%eax)
    8198:	00 00                	add    %al,(%eax)
    819a:	00 00                	add    %al,(%eax)
    819c:	00 00                	add    %al,(%eax)
    819e:	00 00                	add    %al,(%eax)
    81a0:	00 00                	add    %al,(%eax)
    81a2:	00 00                	add    %al,(%eax)
    81a4:	00 00                	add    %al,(%eax)
    81a6:	00 00                	add    %al,(%eax)
    81a8:	00 00                	add    %al,(%eax)
    81aa:	00 00                	add    %al,(%eax)
    81ac:	00 00                	add    %al,(%eax)
    81ae:	00 00                	add    %al,(%eax)
    81b0:	00 00                	add    %al,(%eax)
    81b2:	00 00                	add    %al,(%eax)
    81b4:	00 00                	add    %al,(%eax)
    81b6:	00 00                	add    %al,(%eax)
    81b8:	00 00                	add    %al,(%eax)
    81ba:	00 00                	add    %al,(%eax)
    81bc:	00 00                	add    %al,(%eax)
    81be:	00 00                	add    %al,(%eax)
    81c0:	00 00                	add    %al,(%eax)
    81c2:	00 00                	add    %al,(%eax)
    81c4:	00 00                	add    %al,(%eax)
    81c6:	00 00                	add    %al,(%eax)
    81c8:	00 00                	add    %al,(%eax)
    81ca:	00 00                	add    %al,(%eax)
    81cc:	00 00                	add    %al,(%eax)
    81ce:	00 00                	add    %al,(%eax)
    81d0:	00 00                	add    %al,(%eax)
    81d2:	00 00                	add    %al,(%eax)
    81d4:	00 00                	add    %al,(%eax)
    81d6:	00 00                	add    %al,(%eax)
    81d8:	00 00                	add    %al,(%eax)
    81da:	00 00                	add    %al,(%eax)
    81dc:	00 00                	add    %al,(%eax)
    81de:	00 00                	add    %al,(%eax)
    81e0:	00 00                	add    %al,(%eax)
    81e2:	00 00                	add    %al,(%eax)
    81e4:	00 00                	add    %al,(%eax)
    81e6:	00 00                	add    %al,(%eax)
    81e8:	00 00                	add    %al,(%eax)
    81ea:	00 00                	add    %al,(%eax)
    81ec:	00 00                	add    %al,(%eax)
    81ee:	00 00                	add    %al,(%eax)
    81f0:	00 00                	add    %al,(%eax)
    81f2:	00 00                	add    %al,(%eax)
    81f4:	00 00                	add    %al,(%eax)
    81f6:	00 00                	add    %al,(%eax)
    81f8:	00 00                	add    %al,(%eax)
    81fa:	00 00                	add    %al,(%eax)
    81fc:	00 00                	add    %al,(%eax)
    81fe:	00 00                	add    %al,(%eax)
    8200:	00 00                	add    %al,(%eax)
    8202:	00 00                	add    %al,(%eax)
    8204:	00 00                	add    %al,(%eax)
    8206:	00 00                	add    %al,(%eax)
    8208:	00 00                	add    %al,(%eax)
    820a:	00 00                	add    %al,(%eax)
    820c:	00 00                	add    %al,(%eax)
    820e:	00 00                	add    %al,(%eax)
    8210:	00 00                	add    %al,(%eax)
    8212:	00 00                	add    %al,(%eax)
    8214:	00 00                	add    %al,(%eax)
    8216:	00 00                	add    %al,(%eax)
    8218:	00 00                	add    %al,(%eax)
    821a:	00 00                	add    %al,(%eax)
    821c:	00 00                	add    %al,(%eax)
    821e:	00 00                	add    %al,(%eax)
    8220:	00 00                	add    %al,(%eax)
    8222:	00 00                	add    %al,(%eax)
    8224:	00 00                	add    %al,(%eax)
    8226:	00 00                	add    %al,(%eax)
    8228:	00 00                	add    %al,(%eax)
    822a:	00 00                	add    %al,(%eax)
    822c:	00 00                	add    %al,(%eax)
    822e:	00 00                	add    %al,(%eax)
    8230:	00 00                	add    %al,(%eax)
    8232:	00 00                	add    %al,(%eax)
    8234:	00 00                	add    %al,(%eax)
    8236:	00 00                	add    %al,(%eax)
    8238:	00 00                	add    %al,(%eax)
    823a:	00 00                	add    %al,(%eax)
    823c:	00 00                	add    %al,(%eax)
    823e:	00 00                	add    %al,(%eax)
    8240:	00 00                	add    %al,(%eax)
    8242:	00 00                	add    %al,(%eax)
    8244:	00 00                	add    %al,(%eax)
    8246:	00 00                	add    %al,(%eax)
    8248:	00 00                	add    %al,(%eax)
    824a:	00 00                	add    %al,(%eax)
    824c:	00 00                	add    %al,(%eax)
    824e:	00 00                	add    %al,(%eax)
    8250:	00 00                	add    %al,(%eax)
    8252:	00 00                	add    %al,(%eax)
    8254:	00 00                	add    %al,(%eax)
    8256:	00 00                	add    %al,(%eax)
    8258:	00 00                	add    %al,(%eax)
    825a:	00 00                	add    %al,(%eax)
    825c:	00 00                	add    %al,(%eax)
    825e:	00 00                	add    %al,(%eax)
    8260:	00 00                	add    %al,(%eax)
    8262:	00 00                	add    %al,(%eax)
    8264:	00 00                	add    %al,(%eax)
    8266:	00 00                	add    %al,(%eax)
    8268:	00 00                	add    %al,(%eax)
    826a:	00 00                	add    %al,(%eax)
    826c:	00 00                	add    %al,(%eax)
    826e:	00 00                	add    %al,(%eax)
    8270:	00 00                	add    %al,(%eax)
    8272:	00 00                	add    %al,(%eax)
    8274:	00 00                	add    %al,(%eax)
    8276:	00 00                	add    %al,(%eax)
    8278:	00 00                	add    %al,(%eax)
    827a:	00 00                	add    %al,(%eax)
    827c:	00 00                	add    %al,(%eax)
    827e:	00 00                	add    %al,(%eax)
    8280:	00 00                	add    %al,(%eax)
    8282:	00 00                	add    %al,(%eax)
    8284:	00 00                	add    %al,(%eax)
    8286:	00 00                	add    %al,(%eax)
    8288:	00 00                	add    %al,(%eax)
    828a:	00 00                	add    %al,(%eax)
    828c:	00 00                	add    %al,(%eax)
    828e:	00 00                	add    %al,(%eax)
    8290:	00 00                	add    %al,(%eax)
    8292:	00 00                	add    %al,(%eax)
    8294:	00 00                	add    %al,(%eax)
    8296:	00 00                	add    %al,(%eax)
    8298:	00 00                	add    %al,(%eax)
    829a:	00 00                	add    %al,(%eax)
    829c:	00 00                	add    %al,(%eax)
    829e:	00 00                	add    %al,(%eax)
    82a0:	00 00                	add    %al,(%eax)
    82a2:	00 00                	add    %al,(%eax)
    82a4:	00 00                	add    %al,(%eax)
    82a6:	00 00                	add    %al,(%eax)
    82a8:	00 00                	add    %al,(%eax)
    82aa:	00 00                	add    %al,(%eax)
    82ac:	00 00                	add    %al,(%eax)
    82ae:	00 00                	add    %al,(%eax)
    82b0:	00 00                	add    %al,(%eax)
    82b2:	00 00                	add    %al,(%eax)
    82b4:	00 00                	add    %al,(%eax)
    82b6:	00 00                	add    %al,(%eax)
    82b8:	00 00                	add    %al,(%eax)
    82ba:	00 00                	add    %al,(%eax)
    82bc:	00 00                	add    %al,(%eax)
    82be:	00 00                	add    %al,(%eax)
    82c0:	00 00                	add    %al,(%eax)
    82c2:	00 00                	add    %al,(%eax)
    82c4:	00 00                	add    %al,(%eax)
    82c6:	00 00                	add    %al,(%eax)
    82c8:	00 00                	add    %al,(%eax)
    82ca:	00 00                	add    %al,(%eax)
    82cc:	00 00                	add    %al,(%eax)
    82ce:	00 00                	add    %al,(%eax)
    82d0:	00 00                	add    %al,(%eax)
    82d2:	00 00                	add    %al,(%eax)
    82d4:	00 00                	add    %al,(%eax)
    82d6:	00 00                	add    %al,(%eax)
    82d8:	00 00                	add    %al,(%eax)
    82da:	00 00                	add    %al,(%eax)
    82dc:	00 00                	add    %al,(%eax)
    82de:	00 00                	add    %al,(%eax)
    82e0:	00 00                	add    %al,(%eax)
    82e2:	00 00                	add    %al,(%eax)
    82e4:	00 00                	add    %al,(%eax)
    82e6:	00 00                	add    %al,(%eax)
    82e8:	00 00                	add    %al,(%eax)
    82ea:	00 00                	add    %al,(%eax)
    82ec:	00 00                	add    %al,(%eax)
    82ee:	00 00                	add    %al,(%eax)
    82f0:	00 00                	add    %al,(%eax)
    82f2:	00 00                	add    %al,(%eax)
    82f4:	00 00                	add    %al,(%eax)
    82f6:	00 00                	add    %al,(%eax)
    82f8:	00 00                	add    %al,(%eax)
    82fa:	00 00                	add    %al,(%eax)
    82fc:	00 00                	add    %al,(%eax)
    82fe:	00 00                	add    %al,(%eax)
    8300:	00 00                	add    %al,(%eax)
    8302:	00 00                	add    %al,(%eax)
    8304:	00 00                	add    %al,(%eax)
    8306:	00 00                	add    %al,(%eax)
    8308:	00 00                	add    %al,(%eax)
    830a:	00 00                	add    %al,(%eax)
    830c:	00 00                	add    %al,(%eax)
    830e:	00 00                	add    %al,(%eax)
    8310:	00 00                	add    %al,(%eax)
    8312:	00 00                	add    %al,(%eax)
    8314:	00 00                	add    %al,(%eax)
    8316:	00 00                	add    %al,(%eax)
    8318:	00 00                	add    %al,(%eax)
    831a:	00 00                	add    %al,(%eax)
    831c:	00 00                	add    %al,(%eax)
    831e:	00 00                	add    %al,(%eax)
    8320:	00 00                	add    %al,(%eax)
    8322:	00 00                	add    %al,(%eax)
    8324:	00 00                	add    %al,(%eax)
    8326:	00 00                	add    %al,(%eax)
    8328:	00 00                	add    %al,(%eax)
    832a:	00 00                	add    %al,(%eax)
    832c:	00 00                	add    %al,(%eax)
    832e:	00 00                	add    %al,(%eax)
    8330:	00 00                	add    %al,(%eax)
    8332:	00 00                	add    %al,(%eax)
    8334:	00 00                	add    %al,(%eax)
    8336:	00 00                	add    %al,(%eax)
    8338:	00 00                	add    %al,(%eax)
    833a:	00 00                	add    %al,(%eax)
    833c:	00 00                	add    %al,(%eax)
    833e:	00 00                	add    %al,(%eax)
    8340:	00 00                	add    %al,(%eax)
    8342:	00 00                	add    %al,(%eax)
    8344:	00 00                	add    %al,(%eax)
    8346:	00 00                	add    %al,(%eax)
    8348:	00 00                	add    %al,(%eax)
    834a:	00 00                	add    %al,(%eax)
    834c:	00 00                	add    %al,(%eax)
    834e:	00 00                	add    %al,(%eax)
    8350:	00 00                	add    %al,(%eax)
    8352:	00 00                	add    %al,(%eax)
    8354:	00 00                	add    %al,(%eax)
    8356:	00 00                	add    %al,(%eax)
    8358:	00 00                	add    %al,(%eax)
    835a:	00 00                	add    %al,(%eax)
    835c:	00 00                	add    %al,(%eax)
    835e:	00 00                	add    %al,(%eax)
    8360:	00 00                	add    %al,(%eax)
    8362:	00 00                	add    %al,(%eax)
    8364:	00 00                	add    %al,(%eax)
    8366:	00 00                	add    %al,(%eax)
    8368:	00 00                	add    %al,(%eax)
    836a:	00 00                	add    %al,(%eax)
    836c:	00 00                	add    %al,(%eax)
    836e:	00 00                	add    %al,(%eax)
    8370:	00 00                	add    %al,(%eax)
    8372:	00 00                	add    %al,(%eax)
    8374:	00 00                	add    %al,(%eax)
    8376:	00 00                	add    %al,(%eax)
    8378:	00 00                	add    %al,(%eax)
    837a:	00 00                	add    %al,(%eax)
    837c:	00 00                	add    %al,(%eax)
    837e:	00 00                	add    %al,(%eax)
    8380:	00 00                	add    %al,(%eax)
    8382:	00 00                	add    %al,(%eax)
    8384:	00 00                	add    %al,(%eax)
    8386:	00 00                	add    %al,(%eax)
    8388:	00 00                	add    %al,(%eax)
    838a:	00 00                	add    %al,(%eax)
    838c:	00 00                	add    %al,(%eax)
    838e:	00 00                	add    %al,(%eax)
    8390:	00 00                	add    %al,(%eax)
    8392:	00 00                	add    %al,(%eax)
    8394:	00 00                	add    %al,(%eax)
    8396:	00 00                	add    %al,(%eax)
    8398:	00 00                	add    %al,(%eax)
    839a:	00 00                	add    %al,(%eax)
    839c:	00 00                	add    %al,(%eax)
    839e:	00 00                	add    %al,(%eax)
    83a0:	00 00                	add    %al,(%eax)
    83a2:	00 00                	add    %al,(%eax)
    83a4:	00 00                	add    %al,(%eax)
    83a6:	00 00                	add    %al,(%eax)
    83a8:	00 00                	add    %al,(%eax)
    83aa:	00 00                	add    %al,(%eax)
    83ac:	00 00                	add    %al,(%eax)
    83ae:	00 00                	add    %al,(%eax)
    83b0:	00 00                	add    %al,(%eax)
    83b2:	00 00                	add    %al,(%eax)
    83b4:	00 00                	add    %al,(%eax)
    83b6:	00 00                	add    %al,(%eax)
    83b8:	00 00                	add    %al,(%eax)
    83ba:	00 00                	add    %al,(%eax)
    83bc:	00 00                	add    %al,(%eax)
    83be:	00 00                	add    %al,(%eax)
    83c0:	00 00                	add    %al,(%eax)
    83c2:	00 00                	add    %al,(%eax)
    83c4:	00 00                	add    %al,(%eax)
    83c6:	00 00                	add    %al,(%eax)
    83c8:	00 00                	add    %al,(%eax)
    83ca:	00 00                	add    %al,(%eax)
    83cc:	00 00                	add    %al,(%eax)
    83ce:	00 00                	add    %al,(%eax)
    83d0:	00 00                	add    %al,(%eax)
    83d2:	00 00                	add    %al,(%eax)
    83d4:	00 00                	add    %al,(%eax)
    83d6:	00 00                	add    %al,(%eax)
    83d8:	00 00                	add    %al,(%eax)
    83da:	00 00                	add    %al,(%eax)
    83dc:	00 00                	add    %al,(%eax)
    83de:	00 00                	add    %al,(%eax)
    83e0:	00 00                	add    %al,(%eax)
    83e2:	00 00                	add    %al,(%eax)
    83e4:	00 00                	add    %al,(%eax)
    83e6:	00 00                	add    %al,(%eax)
    83e8:	00 00                	add    %al,(%eax)
    83ea:	00 00                	add    %al,(%eax)
    83ec:	00 00                	add    %al,(%eax)
    83ee:	00 00                	add    %al,(%eax)
    83f0:	00 00                	add    %al,(%eax)
    83f2:	00 00                	add    %al,(%eax)
    83f4:	00 00                	add    %al,(%eax)
    83f6:	00 00                	add    %al,(%eax)
    83f8:	00 00                	add    %al,(%eax)
    83fa:	00 00                	add    %al,(%eax)
    83fc:	00 00                	add    %al,(%eax)
    83fe:	00 00                	add    %al,(%eax)
    8400:	00 00                	add    %al,(%eax)
    8402:	00 00                	add    %al,(%eax)
    8404:	00 00                	add    %al,(%eax)
    8406:	00 00                	add    %al,(%eax)
    8408:	00 00                	add    %al,(%eax)
    840a:	00 00                	add    %al,(%eax)
    840c:	00 00                	add    %al,(%eax)
    840e:	00 00                	add    %al,(%eax)
    8410:	00 00                	add    %al,(%eax)
    8412:	00 00                	add    %al,(%eax)
    8414:	00 00                	add    %al,(%eax)
    8416:	00 00                	add    %al,(%eax)
    8418:	00 00                	add    %al,(%eax)
    841a:	00 00                	add    %al,(%eax)
    841c:	00 00                	add    %al,(%eax)
    841e:	00 00                	add    %al,(%eax)
    8420:	00 00                	add    %al,(%eax)
    8422:	00 00                	add    %al,(%eax)
    8424:	00 00                	add    %al,(%eax)
    8426:	00 00                	add    %al,(%eax)
    8428:	00 00                	add    %al,(%eax)
    842a:	00 00                	add    %al,(%eax)
    842c:	00 00                	add    %al,(%eax)
    842e:	00 00                	add    %al,(%eax)
    8430:	00 00                	add    %al,(%eax)
    8432:	00 00                	add    %al,(%eax)
    8434:	00 00                	add    %al,(%eax)
    8436:	00 00                	add    %al,(%eax)
    8438:	00 00                	add    %al,(%eax)
    843a:	00 00                	add    %al,(%eax)
    843c:	00 00                	add    %al,(%eax)
    843e:	00 00                	add    %al,(%eax)
    8440:	00 00                	add    %al,(%eax)
    8442:	00 00                	add    %al,(%eax)
    8444:	00 00                	add    %al,(%eax)
    8446:	00 00                	add    %al,(%eax)
    8448:	00 00                	add    %al,(%eax)
    844a:	00 00                	add    %al,(%eax)
    844c:	00 00                	add    %al,(%eax)
    844e:	00 00                	add    %al,(%eax)
    8450:	00 00                	add    %al,(%eax)
    8452:	00 00                	add    %al,(%eax)
    8454:	00 00                	add    %al,(%eax)
    8456:	00 00                	add    %al,(%eax)
    8458:	00 00                	add    %al,(%eax)
    845a:	00 00                	add    %al,(%eax)
    845c:	00 00                	add    %al,(%eax)
    845e:	00 00                	add    %al,(%eax)
    8460:	00 00                	add    %al,(%eax)
    8462:	00 00                	add    %al,(%eax)
    8464:	00 00                	add    %al,(%eax)
    8466:	00 00                	add    %al,(%eax)
    8468:	00 00                	add    %al,(%eax)
    846a:	00 00                	add    %al,(%eax)
    846c:	00 00                	add    %al,(%eax)
    846e:	00 00                	add    %al,(%eax)
    8470:	00 00                	add    %al,(%eax)
    8472:	00 00                	add    %al,(%eax)
    8474:	00 00                	add    %al,(%eax)
    8476:	00 00                	add    %al,(%eax)
    8478:	00 00                	add    %al,(%eax)
    847a:	00 00                	add    %al,(%eax)
    847c:	00 00                	add    %al,(%eax)
    847e:	00 00                	add    %al,(%eax)
    8480:	00 00                	add    %al,(%eax)
    8482:	00 00                	add    %al,(%eax)
    8484:	00 00                	add    %al,(%eax)
    8486:	00 00                	add    %al,(%eax)
    8488:	00 00                	add    %al,(%eax)
    848a:	00 00                	add    %al,(%eax)
    848c:	00 00                	add    %al,(%eax)
    848e:	00 00                	add    %al,(%eax)
    8490:	00 00                	add    %al,(%eax)
    8492:	00 00                	add    %al,(%eax)
    8494:	00 00                	add    %al,(%eax)
    8496:	00 00                	add    %al,(%eax)
    8498:	00 00                	add    %al,(%eax)
    849a:	00 00                	add    %al,(%eax)
    849c:	00 00                	add    %al,(%eax)
    849e:	00 00                	add    %al,(%eax)
    84a0:	00 00                	add    %al,(%eax)
    84a2:	00 00                	add    %al,(%eax)
    84a4:	00 00                	add    %al,(%eax)
    84a6:	00 00                	add    %al,(%eax)
    84a8:	00 00                	add    %al,(%eax)
    84aa:	00 00                	add    %al,(%eax)
    84ac:	00 00                	add    %al,(%eax)
    84ae:	00 00                	add    %al,(%eax)
    84b0:	00 00                	add    %al,(%eax)
    84b2:	00 00                	add    %al,(%eax)
    84b4:	00 00                	add    %al,(%eax)
    84b6:	00 00                	add    %al,(%eax)
    84b8:	00 00                	add    %al,(%eax)
    84ba:	00 00                	add    %al,(%eax)
    84bc:	00 00                	add    %al,(%eax)
    84be:	00 00                	add    %al,(%eax)
    84c0:	00 00                	add    %al,(%eax)
    84c2:	00 00                	add    %al,(%eax)
    84c4:	00 00                	add    %al,(%eax)
    84c6:	00 00                	add    %al,(%eax)
    84c8:	00 00                	add    %al,(%eax)
    84ca:	00 00                	add    %al,(%eax)
    84cc:	00 00                	add    %al,(%eax)
    84ce:	00 00                	add    %al,(%eax)
    84d0:	00 00                	add    %al,(%eax)
    84d2:	00 00                	add    %al,(%eax)
    84d4:	00 00                	add    %al,(%eax)
    84d6:	00 00                	add    %al,(%eax)
    84d8:	00 00                	add    %al,(%eax)
    84da:	00 00                	add    %al,(%eax)
    84dc:	00 00                	add    %al,(%eax)
    84de:	00 00                	add    %al,(%eax)
    84e0:	00 00                	add    %al,(%eax)
    84e2:	00 00                	add    %al,(%eax)
    84e4:	00 00                	add    %al,(%eax)
    84e6:	00 00                	add    %al,(%eax)
    84e8:	00 00                	add    %al,(%eax)
    84ea:	00 00                	add    %al,(%eax)
    84ec:	00 00                	add    %al,(%eax)
    84ee:	00 00                	add    %al,(%eax)
    84f0:	00 00                	add    %al,(%eax)
    84f2:	00 00                	add    %al,(%eax)
    84f4:	00 00                	add    %al,(%eax)
    84f6:	00 00                	add    %al,(%eax)
    84f8:	00 00                	add    %al,(%eax)
    84fa:	00 00                	add    %al,(%eax)
    84fc:	00 00                	add    %al,(%eax)
    84fe:	00 00                	add    %al,(%eax)
    8500:	00 00                	add    %al,(%eax)
    8502:	00 00                	add    %al,(%eax)
    8504:	00 00                	add    %al,(%eax)
    8506:	00 00                	add    %al,(%eax)
    8508:	00 00                	add    %al,(%eax)
    850a:	00 00                	add    %al,(%eax)
    850c:	00 00                	add    %al,(%eax)
    850e:	00 00                	add    %al,(%eax)
    8510:	00 00                	add    %al,(%eax)
    8512:	00 00                	add    %al,(%eax)
    8514:	00 00                	add    %al,(%eax)
    8516:	00 00                	add    %al,(%eax)
    8518:	00 00                	add    %al,(%eax)
    851a:	00 00                	add    %al,(%eax)
    851c:	00 00                	add    %al,(%eax)
    851e:	00 00                	add    %al,(%eax)
    8520:	00 00                	add    %al,(%eax)
    8522:	00 00                	add    %al,(%eax)
    8524:	00 00                	add    %al,(%eax)
    8526:	00 00                	add    %al,(%eax)
    8528:	00 00                	add    %al,(%eax)
    852a:	00 00                	add    %al,(%eax)
    852c:	00 00                	add    %al,(%eax)
    852e:	00 00                	add    %al,(%eax)
    8530:	00 00                	add    %al,(%eax)
    8532:	00 00                	add    %al,(%eax)
    8534:	00 00                	add    %al,(%eax)
    8536:	00 00                	add    %al,(%eax)
    8538:	00 00                	add    %al,(%eax)
    853a:	00 00                	add    %al,(%eax)
    853c:	00 00                	add    %al,(%eax)
    853e:	00 00                	add    %al,(%eax)
    8540:	00 00                	add    %al,(%eax)
    8542:	00 00                	add    %al,(%eax)
    8544:	00 00                	add    %al,(%eax)
    8546:	00 00                	add    %al,(%eax)
    8548:	00 00                	add    %al,(%eax)
    854a:	00 00                	add    %al,(%eax)
    854c:	00 00                	add    %al,(%eax)
    854e:	00 00                	add    %al,(%eax)
    8550:	00 00                	add    %al,(%eax)
    8552:	00 00                	add    %al,(%eax)
    8554:	00 00                	add    %al,(%eax)
    8556:	00 00                	add    %al,(%eax)
    8558:	00 00                	add    %al,(%eax)
    855a:	00 00                	add    %al,(%eax)
    855c:	00 00                	add    %al,(%eax)
    855e:	00 00                	add    %al,(%eax)
    8560:	00 00                	add    %al,(%eax)
    8562:	00 00                	add    %al,(%eax)
    8564:	00 00                	add    %al,(%eax)
    8566:	00 00                	add    %al,(%eax)
    8568:	00 00                	add    %al,(%eax)
    856a:	00 00                	add    %al,(%eax)
    856c:	00 00                	add    %al,(%eax)
    856e:	00 00                	add    %al,(%eax)
    8570:	00 00                	add    %al,(%eax)
    8572:	00 00                	add    %al,(%eax)
    8574:	00 00                	add    %al,(%eax)
    8576:	00 00                	add    %al,(%eax)
    8578:	00 00                	add    %al,(%eax)
    857a:	00 00                	add    %al,(%eax)
    857c:	00 00                	add    %al,(%eax)
    857e:	00 00                	add    %al,(%eax)
    8580:	00 00                	add    %al,(%eax)
    8582:	00 00                	add    %al,(%eax)
    8584:	00 00                	add    %al,(%eax)
    8586:	00 00                	add    %al,(%eax)
    8588:	00 00                	add    %al,(%eax)
    858a:	00 00                	add    %al,(%eax)
    858c:	00 00                	add    %al,(%eax)
    858e:	00 00                	add    %al,(%eax)
    8590:	00 00                	add    %al,(%eax)
    8592:	00 00                	add    %al,(%eax)
    8594:	00 00                	add    %al,(%eax)
    8596:	00 00                	add    %al,(%eax)
    8598:	00 00                	add    %al,(%eax)
    859a:	00 00                	add    %al,(%eax)
    859c:	00 00                	add    %al,(%eax)
    859e:	00 00                	add    %al,(%eax)
    85a0:	00 00                	add    %al,(%eax)
    85a2:	00 00                	add    %al,(%eax)
    85a4:	00 00                	add    %al,(%eax)
    85a6:	00 00                	add    %al,(%eax)
    85a8:	00 00                	add    %al,(%eax)
    85aa:	00 00                	add    %al,(%eax)
    85ac:	00 00                	add    %al,(%eax)
    85ae:	00 00                	add    %al,(%eax)
    85b0:	00 00                	add    %al,(%eax)
    85b2:	00 00                	add    %al,(%eax)
    85b4:	00 00                	add    %al,(%eax)
    85b6:	00 00                	add    %al,(%eax)
    85b8:	00 00                	add    %al,(%eax)
    85ba:	00 00                	add    %al,(%eax)
    85bc:	00 00                	add    %al,(%eax)
    85be:	00 00                	add    %al,(%eax)
    85c0:	00 00                	add    %al,(%eax)
    85c2:	00 00                	add    %al,(%eax)
    85c4:	00 00                	add    %al,(%eax)
    85c6:	00 00                	add    %al,(%eax)
    85c8:	00 00                	add    %al,(%eax)
    85ca:	00 00                	add    %al,(%eax)
    85cc:	00 00                	add    %al,(%eax)
    85ce:	00 00                	add    %al,(%eax)
    85d0:	00 00                	add    %al,(%eax)
    85d2:	00 00                	add    %al,(%eax)
    85d4:	00 00                	add    %al,(%eax)
    85d6:	00 00                	add    %al,(%eax)
    85d8:	00 00                	add    %al,(%eax)
    85da:	00 00                	add    %al,(%eax)
    85dc:	00 00                	add    %al,(%eax)
    85de:	00 00                	add    %al,(%eax)
    85e0:	00 00                	add    %al,(%eax)
    85e2:	00 00                	add    %al,(%eax)
    85e4:	00 00                	add    %al,(%eax)
    85e6:	00 00                	add    %al,(%eax)
    85e8:	00 00                	add    %al,(%eax)
    85ea:	00 00                	add    %al,(%eax)
    85ec:	00 00                	add    %al,(%eax)
    85ee:	00 00                	add    %al,(%eax)
    85f0:	00 00                	add    %al,(%eax)
    85f2:	00 00                	add    %al,(%eax)
    85f4:	00 00                	add    %al,(%eax)
    85f6:	00 00                	add    %al,(%eax)
    85f8:	00 00                	add    %al,(%eax)
    85fa:	00 00                	add    %al,(%eax)
    85fc:	00 00                	add    %al,(%eax)
    85fe:	00 00                	add    %al,(%eax)
    8600:	00 00                	add    %al,(%eax)
    8602:	00 00                	add    %al,(%eax)
    8604:	00 00                	add    %al,(%eax)
    8606:	00 00                	add    %al,(%eax)
    8608:	00 00                	add    %al,(%eax)
    860a:	00 00                	add    %al,(%eax)
    860c:	00 00                	add    %al,(%eax)
    860e:	00 00                	add    %al,(%eax)
    8610:	00 00                	add    %al,(%eax)
    8612:	00 00                	add    %al,(%eax)
    8614:	00 00                	add    %al,(%eax)
    8616:	00 00                	add    %al,(%eax)
    8618:	00 00                	add    %al,(%eax)
    861a:	00 00                	add    %al,(%eax)
    861c:	00 00                	add    %al,(%eax)
    861e:	00 00                	add    %al,(%eax)
    8620:	00 00                	add    %al,(%eax)
    8622:	00 00                	add    %al,(%eax)
    8624:	00 00                	add    %al,(%eax)
    8626:	00 00                	add    %al,(%eax)
    8628:	00 00                	add    %al,(%eax)
    862a:	00 00                	add    %al,(%eax)
    862c:	00 00                	add    %al,(%eax)
    862e:	00 00                	add    %al,(%eax)
    8630:	00 00                	add    %al,(%eax)
    8632:	00 00                	add    %al,(%eax)
    8634:	00 00                	add    %al,(%eax)
    8636:	00 00                	add    %al,(%eax)
    8638:	00 00                	add    %al,(%eax)
    863a:	00 00                	add    %al,(%eax)
    863c:	00 00                	add    %al,(%eax)
    863e:	00 00                	add    %al,(%eax)
    8640:	00 00                	add    %al,(%eax)
    8642:	00 00                	add    %al,(%eax)
    8644:	00 00                	add    %al,(%eax)
    8646:	00 00                	add    %al,(%eax)
    8648:	00 00                	add    %al,(%eax)
    864a:	00 00                	add    %al,(%eax)
    864c:	00 00                	add    %al,(%eax)
    864e:	00 00                	add    %al,(%eax)
    8650:	00 00                	add    %al,(%eax)
    8652:	00 00                	add    %al,(%eax)
    8654:	00 00                	add    %al,(%eax)
    8656:	00 00                	add    %al,(%eax)
    8658:	00 00                	add    %al,(%eax)
    865a:	00 00                	add    %al,(%eax)
    865c:	00 00                	add    %al,(%eax)
    865e:	00 00                	add    %al,(%eax)
    8660:	00 00                	add    %al,(%eax)
    8662:	00 00                	add    %al,(%eax)
    8664:	00 00                	add    %al,(%eax)
    8666:	00 00                	add    %al,(%eax)
    8668:	00 00                	add    %al,(%eax)
    866a:	00 00                	add    %al,(%eax)
    866c:	00 00                	add    %al,(%eax)
    866e:	00 00                	add    %al,(%eax)
    8670:	00 00                	add    %al,(%eax)
    8672:	00 00                	add    %al,(%eax)
    8674:	00 00                	add    %al,(%eax)
    8676:	00 00                	add    %al,(%eax)
    8678:	00 00                	add    %al,(%eax)
    867a:	00 00                	add    %al,(%eax)
    867c:	00 00                	add    %al,(%eax)
    867e:	00 00                	add    %al,(%eax)
    8680:	00 00                	add    %al,(%eax)
    8682:	00 00                	add    %al,(%eax)
    8684:	00 00                	add    %al,(%eax)
    8686:	00 00                	add    %al,(%eax)
    8688:	00 00                	add    %al,(%eax)
    868a:	00 00                	add    %al,(%eax)
    868c:	00 00                	add    %al,(%eax)
    868e:	00 00                	add    %al,(%eax)
    8690:	00 00                	add    %al,(%eax)
    8692:	00 00                	add    %al,(%eax)
    8694:	00 00                	add    %al,(%eax)
    8696:	00 00                	add    %al,(%eax)
    8698:	00 00                	add    %al,(%eax)
    869a:	00 00                	add    %al,(%eax)
    869c:	00 00                	add    %al,(%eax)
    869e:	00 00                	add    %al,(%eax)
    86a0:	00 00                	add    %al,(%eax)
    86a2:	00 00                	add    %al,(%eax)
    86a4:	00 00                	add    %al,(%eax)
    86a6:	00 00                	add    %al,(%eax)
    86a8:	00 00                	add    %al,(%eax)
    86aa:	00 00                	add    %al,(%eax)
    86ac:	00 00                	add    %al,(%eax)
    86ae:	00 00                	add    %al,(%eax)
    86b0:	00 00                	add    %al,(%eax)
    86b2:	00 00                	add    %al,(%eax)
    86b4:	00 00                	add    %al,(%eax)
    86b6:	00 00                	add    %al,(%eax)
    86b8:	00 00                	add    %al,(%eax)
    86ba:	00 00                	add    %al,(%eax)
    86bc:	00 00                	add    %al,(%eax)
    86be:	00 00                	add    %al,(%eax)
    86c0:	00 00                	add    %al,(%eax)
    86c2:	00 00                	add    %al,(%eax)
    86c4:	00 00                	add    %al,(%eax)
    86c6:	00 00                	add    %al,(%eax)
    86c8:	00 00                	add    %al,(%eax)
    86ca:	00 00                	add    %al,(%eax)
    86cc:	00 00                	add    %al,(%eax)
    86ce:	00 00                	add    %al,(%eax)
    86d0:	00 00                	add    %al,(%eax)
    86d2:	00 00                	add    %al,(%eax)
    86d4:	00 00                	add    %al,(%eax)
    86d6:	00 00                	add    %al,(%eax)
    86d8:	00 00                	add    %al,(%eax)
    86da:	00 00                	add    %al,(%eax)
    86dc:	00 00                	add    %al,(%eax)
    86de:	00 00                	add    %al,(%eax)
    86e0:	00 00                	add    %al,(%eax)
    86e2:	00 00                	add    %al,(%eax)
    86e4:	00 00                	add    %al,(%eax)
    86e6:	00 00                	add    %al,(%eax)
    86e8:	00 00                	add    %al,(%eax)
    86ea:	00 00                	add    %al,(%eax)
    86ec:	00 00                	add    %al,(%eax)
    86ee:	00 00                	add    %al,(%eax)
    86f0:	00 00                	add    %al,(%eax)
    86f2:	00 00                	add    %al,(%eax)
    86f4:	00 00                	add    %al,(%eax)
    86f6:	00 00                	add    %al,(%eax)
    86f8:	00 00                	add    %al,(%eax)
    86fa:	00 00                	add    %al,(%eax)
    86fc:	00 00                	add    %al,(%eax)
    86fe:	00 00                	add    %al,(%eax)
    8700:	00 00                	add    %al,(%eax)
    8702:	00 00                	add    %al,(%eax)
    8704:	00 00                	add    %al,(%eax)
    8706:	00 00                	add    %al,(%eax)
    8708:	00 00                	add    %al,(%eax)
    870a:	00 00                	add    %al,(%eax)
    870c:	00 00                	add    %al,(%eax)
    870e:	00 00                	add    %al,(%eax)
    8710:	00 00                	add    %al,(%eax)
    8712:	00 00                	add    %al,(%eax)
    8714:	00 00                	add    %al,(%eax)
    8716:	00 00                	add    %al,(%eax)
    8718:	00 00                	add    %al,(%eax)
    871a:	00 00                	add    %al,(%eax)
    871c:	00 00                	add    %al,(%eax)
    871e:	00 00                	add    %al,(%eax)
    8720:	00 00                	add    %al,(%eax)
    8722:	00 00                	add    %al,(%eax)
    8724:	00 00                	add    %al,(%eax)
    8726:	00 00                	add    %al,(%eax)
    8728:	00 00                	add    %al,(%eax)
    872a:	00 00                	add    %al,(%eax)
    872c:	00 00                	add    %al,(%eax)
    872e:	00 00                	add    %al,(%eax)
    8730:	00 00                	add    %al,(%eax)
    8732:	00 00                	add    %al,(%eax)
    8734:	00 00                	add    %al,(%eax)
    8736:	00 00                	add    %al,(%eax)
    8738:	00 00                	add    %al,(%eax)
    873a:	00 00                	add    %al,(%eax)
    873c:	00 00                	add    %al,(%eax)
    873e:	00 00                	add    %al,(%eax)
    8740:	00 00                	add    %al,(%eax)
    8742:	00 00                	add    %al,(%eax)
    8744:	00 00                	add    %al,(%eax)
    8746:	00 00                	add    %al,(%eax)
    8748:	00 00                	add    %al,(%eax)
    874a:	00 00                	add    %al,(%eax)
    874c:	00 00                	add    %al,(%eax)
    874e:	00 00                	add    %al,(%eax)
    8750:	00 00                	add    %al,(%eax)
    8752:	00 00                	add    %al,(%eax)
    8754:	00 00                	add    %al,(%eax)
    8756:	00 00                	add    %al,(%eax)
    8758:	00 00                	add    %al,(%eax)
    875a:	00 00                	add    %al,(%eax)
    875c:	00 00                	add    %al,(%eax)
    875e:	00 00                	add    %al,(%eax)
    8760:	00 00                	add    %al,(%eax)
    8762:	00 00                	add    %al,(%eax)
    8764:	00 00                	add    %al,(%eax)
    8766:	00 00                	add    %al,(%eax)
    8768:	00 00                	add    %al,(%eax)
    876a:	00 00                	add    %al,(%eax)
    876c:	00 00                	add    %al,(%eax)
    876e:	00 00                	add    %al,(%eax)
    8770:	00 00                	add    %al,(%eax)
    8772:	00 00                	add    %al,(%eax)
    8774:	00 00                	add    %al,(%eax)
    8776:	00 00                	add    %al,(%eax)
    8778:	00 00                	add    %al,(%eax)
    877a:	00 00                	add    %al,(%eax)
    877c:	00 00                	add    %al,(%eax)
    877e:	00 00                	add    %al,(%eax)
    8780:	00 00                	add    %al,(%eax)
    8782:	00 00                	add    %al,(%eax)
    8784:	00 00                	add    %al,(%eax)
    8786:	00 00                	add    %al,(%eax)
    8788:	00 00                	add    %al,(%eax)
    878a:	00 00                	add    %al,(%eax)
    878c:	00 00                	add    %al,(%eax)
    878e:	00 00                	add    %al,(%eax)
    8790:	00 00                	add    %al,(%eax)
    8792:	00 00                	add    %al,(%eax)
    8794:	00 00                	add    %al,(%eax)
    8796:	00 00                	add    %al,(%eax)
    8798:	00 00                	add    %al,(%eax)
    879a:	00 00                	add    %al,(%eax)
    879c:	00 00                	add    %al,(%eax)
    879e:	00 00                	add    %al,(%eax)
    87a0:	00 00                	add    %al,(%eax)
    87a2:	00 00                	add    %al,(%eax)
    87a4:	00 00                	add    %al,(%eax)
    87a6:	00 00                	add    %al,(%eax)
    87a8:	00 00                	add    %al,(%eax)
    87aa:	00 00                	add    %al,(%eax)
    87ac:	00 00                	add    %al,(%eax)
    87ae:	00 00                	add    %al,(%eax)
    87b0:	00 00                	add    %al,(%eax)
    87b2:	00 00                	add    %al,(%eax)
    87b4:	00 00                	add    %al,(%eax)
    87b6:	00 00                	add    %al,(%eax)
    87b8:	00 00                	add    %al,(%eax)
    87ba:	00 00                	add    %al,(%eax)
    87bc:	00 00                	add    %al,(%eax)
    87be:	00 00                	add    %al,(%eax)
    87c0:	00 00                	add    %al,(%eax)
    87c2:	00 00                	add    %al,(%eax)
    87c4:	00 00                	add    %al,(%eax)
    87c6:	00 00                	add    %al,(%eax)
    87c8:	00 00                	add    %al,(%eax)
    87ca:	00 00                	add    %al,(%eax)
    87cc:	00 00                	add    %al,(%eax)
    87ce:	00 00                	add    %al,(%eax)
    87d0:	00 00                	add    %al,(%eax)
    87d2:	00 00                	add    %al,(%eax)
    87d4:	00 00                	add    %al,(%eax)
    87d6:	00 00                	add    %al,(%eax)
    87d8:	00 00                	add    %al,(%eax)
    87da:	00 00                	add    %al,(%eax)
    87dc:	00 00                	add    %al,(%eax)
    87de:	00 00                	add    %al,(%eax)
    87e0:	00 00                	add    %al,(%eax)
    87e2:	00 00                	add    %al,(%eax)
    87e4:	00 00                	add    %al,(%eax)
    87e6:	00 00                	add    %al,(%eax)
    87e8:	00 00                	add    %al,(%eax)
    87ea:	00 00                	add    %al,(%eax)
    87ec:	00 00                	add    %al,(%eax)
    87ee:	00 00                	add    %al,(%eax)
    87f0:	00 00                	add    %al,(%eax)
    87f2:	00 00                	add    %al,(%eax)
    87f4:	00 00                	add    %al,(%eax)
    87f6:	00 00                	add    %al,(%eax)
    87f8:	00 00                	add    %al,(%eax)
    87fa:	00 00                	add    %al,(%eax)
    87fc:	00 00                	add    %al,(%eax)
    87fe:	00 00                	add    %al,(%eax)
    8800:	00 00                	add    %al,(%eax)
    8802:	00 00                	add    %al,(%eax)
    8804:	00 00                	add    %al,(%eax)
    8806:	00 00                	add    %al,(%eax)
    8808:	00 00                	add    %al,(%eax)
    880a:	00 00                	add    %al,(%eax)
    880c:	00 00                	add    %al,(%eax)
    880e:	00 00                	add    %al,(%eax)
    8810:	00 00                	add    %al,(%eax)
    8812:	00 00                	add    %al,(%eax)
    8814:	00 00                	add    %al,(%eax)
    8816:	00 00                	add    %al,(%eax)
    8818:	00 00                	add    %al,(%eax)
    881a:	00 00                	add    %al,(%eax)
    881c:	00 00                	add    %al,(%eax)
    881e:	00 00                	add    %al,(%eax)
    8820:	00 00                	add    %al,(%eax)
    8822:	00 00                	add    %al,(%eax)
    8824:	00 00                	add    %al,(%eax)
    8826:	00 00                	add    %al,(%eax)
    8828:	00 00                	add    %al,(%eax)
    882a:	00 00                	add    %al,(%eax)
    882c:	00 00                	add    %al,(%eax)
    882e:	00 00                	add    %al,(%eax)
    8830:	00 00                	add    %al,(%eax)
    8832:	00 00                	add    %al,(%eax)
    8834:	00 00                	add    %al,(%eax)
    8836:	00 00                	add    %al,(%eax)
    8838:	00 00                	add    %al,(%eax)
    883a:	00 00                	add    %al,(%eax)
    883c:	00 00                	add    %al,(%eax)
    883e:	00 00                	add    %al,(%eax)
    8840:	00 00                	add    %al,(%eax)
    8842:	00 00                	add    %al,(%eax)
    8844:	00 00                	add    %al,(%eax)
    8846:	00 00                	add    %al,(%eax)
    8848:	00 00                	add    %al,(%eax)
    884a:	00 00                	add    %al,(%eax)
    884c:	00 00                	add    %al,(%eax)
    884e:	00 00                	add    %al,(%eax)
    8850:	00 00                	add    %al,(%eax)
    8852:	00 00                	add    %al,(%eax)
    8854:	00 00                	add    %al,(%eax)
    8856:	00 00                	add    %al,(%eax)
    8858:	00 00                	add    %al,(%eax)
    885a:	00 00                	add    %al,(%eax)
    885c:	00 00                	add    %al,(%eax)
    885e:	00 00                	add    %al,(%eax)
    8860:	00 00                	add    %al,(%eax)
    8862:	00 00                	add    %al,(%eax)
    8864:	00 00                	add    %al,(%eax)
    8866:	00 00                	add    %al,(%eax)
    8868:	00 00                	add    %al,(%eax)
    886a:	00 00                	add    %al,(%eax)
    886c:	00 00                	add    %al,(%eax)
    886e:	00 00                	add    %al,(%eax)
    8870:	00 00                	add    %al,(%eax)
    8872:	00 00                	add    %al,(%eax)
    8874:	00 00                	add    %al,(%eax)
    8876:	00 00                	add    %al,(%eax)
    8878:	00 00                	add    %al,(%eax)
    887a:	00 00                	add    %al,(%eax)
    887c:	00 00                	add    %al,(%eax)
    887e:	00 00                	add    %al,(%eax)
    8880:	00 00                	add    %al,(%eax)
    8882:	00 00                	add    %al,(%eax)
    8884:	00 00                	add    %al,(%eax)
    8886:	00 00                	add    %al,(%eax)
    8888:	00 00                	add    %al,(%eax)
    888a:	00 00                	add    %al,(%eax)
    888c:	00 00                	add    %al,(%eax)
    888e:	00 00                	add    %al,(%eax)
    8890:	00 00                	add    %al,(%eax)
    8892:	00 00                	add    %al,(%eax)
    8894:	00 00                	add    %al,(%eax)
    8896:	00 00                	add    %al,(%eax)
    8898:	00 00                	add    %al,(%eax)
    889a:	00 00                	add    %al,(%eax)
    889c:	00 00                	add    %al,(%eax)
    889e:	00 00                	add    %al,(%eax)
    88a0:	00 00                	add    %al,(%eax)
    88a2:	00 00                	add    %al,(%eax)
    88a4:	00 00                	add    %al,(%eax)
    88a6:	00 00                	add    %al,(%eax)
    88a8:	00 00                	add    %al,(%eax)
    88aa:	00 00                	add    %al,(%eax)
    88ac:	00 00                	add    %al,(%eax)
    88ae:	00 00                	add    %al,(%eax)
    88b0:	00 00                	add    %al,(%eax)
    88b2:	00 00                	add    %al,(%eax)
    88b4:	00 00                	add    %al,(%eax)
    88b6:	00 00                	add    %al,(%eax)
    88b8:	00 00                	add    %al,(%eax)
    88ba:	00 00                	add    %al,(%eax)
    88bc:	00 00                	add    %al,(%eax)
    88be:	00 00                	add    %al,(%eax)
    88c0:	00 00                	add    %al,(%eax)
    88c2:	00 00                	add    %al,(%eax)
    88c4:	00 00                	add    %al,(%eax)
    88c6:	00 00                	add    %al,(%eax)
    88c8:	00 00                	add    %al,(%eax)
    88ca:	00 00                	add    %al,(%eax)
    88cc:	00 00                	add    %al,(%eax)
    88ce:	00 00                	add    %al,(%eax)
    88d0:	00 00                	add    %al,(%eax)
    88d2:	00 00                	add    %al,(%eax)
    88d4:	00 00                	add    %al,(%eax)
    88d6:	00 00                	add    %al,(%eax)
    88d8:	00 00                	add    %al,(%eax)
    88da:	00 00                	add    %al,(%eax)
    88dc:	00 00                	add    %al,(%eax)
    88de:	00 00                	add    %al,(%eax)
    88e0:	00 00                	add    %al,(%eax)
    88e2:	00 00                	add    %al,(%eax)
    88e4:	00 00                	add    %al,(%eax)
    88e6:	00 00                	add    %al,(%eax)
    88e8:	00 00                	add    %al,(%eax)
    88ea:	00 00                	add    %al,(%eax)
    88ec:	00 00                	add    %al,(%eax)
    88ee:	00 00                	add    %al,(%eax)
    88f0:	00 00                	add    %al,(%eax)
    88f2:	00 00                	add    %al,(%eax)
    88f4:	00 00                	add    %al,(%eax)
    88f6:	00 00                	add    %al,(%eax)
    88f8:	00 00                	add    %al,(%eax)
    88fa:	00 00                	add    %al,(%eax)
    88fc:	00 00                	add    %al,(%eax)
    88fe:	00 00                	add    %al,(%eax)
    8900:	00 00                	add    %al,(%eax)
    8902:	00 00                	add    %al,(%eax)
    8904:	00 00                	add    %al,(%eax)
    8906:	00 00                	add    %al,(%eax)
    8908:	00 00                	add    %al,(%eax)
    890a:	00 00                	add    %al,(%eax)
    890c:	00 00                	add    %al,(%eax)
    890e:	00 00                	add    %al,(%eax)
    8910:	00 00                	add    %al,(%eax)
    8912:	00 00                	add    %al,(%eax)
    8914:	00 00                	add    %al,(%eax)
    8916:	00 00                	add    %al,(%eax)
    8918:	00 00                	add    %al,(%eax)
    891a:	00 00                	add    %al,(%eax)
    891c:	00 00                	add    %al,(%eax)
    891e:	00 00                	add    %al,(%eax)
    8920:	00 00                	add    %al,(%eax)
    8922:	00 00                	add    %al,(%eax)
    8924:	00 00                	add    %al,(%eax)
    8926:	00 00                	add    %al,(%eax)
    8928:	00 00                	add    %al,(%eax)
    892a:	00 00                	add    %al,(%eax)
    892c:	00 00                	add    %al,(%eax)
    892e:	00 00                	add    %al,(%eax)
    8930:	00 00                	add    %al,(%eax)
    8932:	00 00                	add    %al,(%eax)
    8934:	00 00                	add    %al,(%eax)
    8936:	00 00                	add    %al,(%eax)
    8938:	00 00                	add    %al,(%eax)
    893a:	00 00                	add    %al,(%eax)
    893c:	00 00                	add    %al,(%eax)
    893e:	00 00                	add    %al,(%eax)
    8940:	00 00                	add    %al,(%eax)
    8942:	00 00                	add    %al,(%eax)
    8944:	00 00                	add    %al,(%eax)
    8946:	00 00                	add    %al,(%eax)
    8948:	00 00                	add    %al,(%eax)
    894a:	00 00                	add    %al,(%eax)
    894c:	00 00                	add    %al,(%eax)
    894e:	00 00                	add    %al,(%eax)
    8950:	00 00                	add    %al,(%eax)
    8952:	00 00                	add    %al,(%eax)
    8954:	00 00                	add    %al,(%eax)
    8956:	00 00                	add    %al,(%eax)
    8958:	00 00                	add    %al,(%eax)
    895a:	00 00                	add    %al,(%eax)
    895c:	00 00                	add    %al,(%eax)
    895e:	00 00                	add    %al,(%eax)
    8960:	00 00                	add    %al,(%eax)
    8962:	00 00                	add    %al,(%eax)
    8964:	00 00                	add    %al,(%eax)
    8966:	00 00                	add    %al,(%eax)
    8968:	00 00                	add    %al,(%eax)
    896a:	00 00                	add    %al,(%eax)
    896c:	00 00                	add    %al,(%eax)
    896e:	00 00                	add    %al,(%eax)
    8970:	00 00                	add    %al,(%eax)
    8972:	00 00                	add    %al,(%eax)
    8974:	00 00                	add    %al,(%eax)
    8976:	00 00                	add    %al,(%eax)
    8978:	00 00                	add    %al,(%eax)
    897a:	00 00                	add    %al,(%eax)
    897c:	00 00                	add    %al,(%eax)
    897e:	00 00                	add    %al,(%eax)
    8980:	00 00                	add    %al,(%eax)
    8982:	00 00                	add    %al,(%eax)
    8984:	00 00                	add    %al,(%eax)
    8986:	00 00                	add    %al,(%eax)
    8988:	00 00                	add    %al,(%eax)
    898a:	00 00                	add    %al,(%eax)
    898c:	00 00                	add    %al,(%eax)
    898e:	00 00                	add    %al,(%eax)
    8990:	00 00                	add    %al,(%eax)
    8992:	00 00                	add    %al,(%eax)
    8994:	00 00                	add    %al,(%eax)
    8996:	00 00                	add    %al,(%eax)
    8998:	00 00                	add    %al,(%eax)
    899a:	00 00                	add    %al,(%eax)
    899c:	00 00                	add    %al,(%eax)
    899e:	00 00                	add    %al,(%eax)
    89a0:	00 00                	add    %al,(%eax)
    89a2:	00 00                	add    %al,(%eax)
    89a4:	00 00                	add    %al,(%eax)
    89a6:	00 00                	add    %al,(%eax)
    89a8:	00 00                	add    %al,(%eax)
    89aa:	00 00                	add    %al,(%eax)
    89ac:	00 00                	add    %al,(%eax)
    89ae:	00 00                	add    %al,(%eax)
    89b0:	00 00                	add    %al,(%eax)
    89b2:	00 00                	add    %al,(%eax)
    89b4:	00 00                	add    %al,(%eax)
    89b6:	00 00                	add    %al,(%eax)
    89b8:	00 00                	add    %al,(%eax)
    89ba:	00 00                	add    %al,(%eax)
    89bc:	00 00                	add    %al,(%eax)
    89be:	00 00                	add    %al,(%eax)
    89c0:	00 00                	add    %al,(%eax)
    89c2:	00 00                	add    %al,(%eax)
    89c4:	00 00                	add    %al,(%eax)
    89c6:	00 00                	add    %al,(%eax)
    89c8:	00 00                	add    %al,(%eax)
    89ca:	00 00                	add    %al,(%eax)
    89cc:	00 00                	add    %al,(%eax)
    89ce:	00 00                	add    %al,(%eax)
    89d0:	00 00                	add    %al,(%eax)
    89d2:	00 00                	add    %al,(%eax)
    89d4:	00 00                	add    %al,(%eax)
    89d6:	00 00                	add    %al,(%eax)
    89d8:	00 00                	add    %al,(%eax)
    89da:	00 00                	add    %al,(%eax)
    89dc:	00 00                	add    %al,(%eax)
    89de:	00 00                	add    %al,(%eax)
    89e0:	00 00                	add    %al,(%eax)
    89e2:	00 00                	add    %al,(%eax)
    89e4:	00 00                	add    %al,(%eax)
    89e6:	00 00                	add    %al,(%eax)
    89e8:	00 00                	add    %al,(%eax)
    89ea:	00 00                	add    %al,(%eax)
    89ec:	00 00                	add    %al,(%eax)
    89ee:	00 00                	add    %al,(%eax)
    89f0:	00 00                	add    %al,(%eax)
    89f2:	00 00                	add    %al,(%eax)
    89f4:	00 00                	add    %al,(%eax)
    89f6:	00 00                	add    %al,(%eax)
    89f8:	00 00                	add    %al,(%eax)
    89fa:	00 00                	add    %al,(%eax)
    89fc:	00 00                	add    %al,(%eax)
    89fe:	00 00                	add    %al,(%eax)
    8a00:	00 00                	add    %al,(%eax)
    8a02:	00 00                	add    %al,(%eax)
    8a04:	00 00                	add    %al,(%eax)
    8a06:	00 00                	add    %al,(%eax)
    8a08:	00 00                	add    %al,(%eax)
    8a0a:	00 00                	add    %al,(%eax)
    8a0c:	00 00                	add    %al,(%eax)
    8a0e:	00 00                	add    %al,(%eax)
    8a10:	00 00                	add    %al,(%eax)
    8a12:	00 00                	add    %al,(%eax)
    8a14:	00 00                	add    %al,(%eax)
    8a16:	00 00                	add    %al,(%eax)
    8a18:	00 00                	add    %al,(%eax)
    8a1a:	00 00                	add    %al,(%eax)
    8a1c:	00 00                	add    %al,(%eax)
    8a1e:	00 00                	add    %al,(%eax)
    8a20:	00 00                	add    %al,(%eax)
    8a22:	00 00                	add    %al,(%eax)
    8a24:	00 00                	add    %al,(%eax)
    8a26:	00 00                	add    %al,(%eax)
    8a28:	00 00                	add    %al,(%eax)
    8a2a:	00 00                	add    %al,(%eax)
    8a2c:	00 00                	add    %al,(%eax)
    8a2e:	00 00                	add    %al,(%eax)
    8a30:	00 00                	add    %al,(%eax)
    8a32:	00 00                	add    %al,(%eax)
    8a34:	00 00                	add    %al,(%eax)
    8a36:	00 00                	add    %al,(%eax)
    8a38:	00 00                	add    %al,(%eax)
    8a3a:	00 00                	add    %al,(%eax)
    8a3c:	00 00                	add    %al,(%eax)
    8a3e:	00 00                	add    %al,(%eax)
    8a40:	00 00                	add    %al,(%eax)
    8a42:	00 00                	add    %al,(%eax)
    8a44:	00 00                	add    %al,(%eax)
    8a46:	00 00                	add    %al,(%eax)
    8a48:	00 00                	add    %al,(%eax)
    8a4a:	00 00                	add    %al,(%eax)
    8a4c:	00 00                	add    %al,(%eax)
    8a4e:	00 00                	add    %al,(%eax)
    8a50:	00 00                	add    %al,(%eax)
    8a52:	00 00                	add    %al,(%eax)
    8a54:	00 00                	add    %al,(%eax)
    8a56:	00 00                	add    %al,(%eax)
    8a58:	00 00                	add    %al,(%eax)
    8a5a:	00 00                	add    %al,(%eax)
    8a5c:	00 00                	add    %al,(%eax)
    8a5e:	00 00                	add    %al,(%eax)
    8a60:	00 00                	add    %al,(%eax)
    8a62:	00 00                	add    %al,(%eax)
    8a64:	00 00                	add    %al,(%eax)
    8a66:	00 00                	add    %al,(%eax)
    8a68:	00 00                	add    %al,(%eax)
    8a6a:	00 00                	add    %al,(%eax)
    8a6c:	00 00                	add    %al,(%eax)
    8a6e:	00 00                	add    %al,(%eax)
    8a70:	00 00                	add    %al,(%eax)
    8a72:	00 00                	add    %al,(%eax)
    8a74:	00 00                	add    %al,(%eax)
    8a76:	00 00                	add    %al,(%eax)
    8a78:	00 00                	add    %al,(%eax)
    8a7a:	00 00                	add    %al,(%eax)
    8a7c:	00 00                	add    %al,(%eax)
    8a7e:	00 00                	add    %al,(%eax)
    8a80:	00 00                	add    %al,(%eax)
    8a82:	00 00                	add    %al,(%eax)
    8a84:	00 00                	add    %al,(%eax)
    8a86:	00 00                	add    %al,(%eax)
    8a88:	00 00                	add    %al,(%eax)
    8a8a:	00 00                	add    %al,(%eax)
    8a8c:	00 00                	add    %al,(%eax)
    8a8e:	00 00                	add    %al,(%eax)
    8a90:	00 00                	add    %al,(%eax)
    8a92:	00 00                	add    %al,(%eax)
    8a94:	00 00                	add    %al,(%eax)
    8a96:	00 00                	add    %al,(%eax)
    8a98:	00 00                	add    %al,(%eax)
    8a9a:	00 00                	add    %al,(%eax)
    8a9c:	00 00                	add    %al,(%eax)
    8a9e:	00 00                	add    %al,(%eax)
    8aa0:	00 00                	add    %al,(%eax)
    8aa2:	00 00                	add    %al,(%eax)
    8aa4:	00 00                	add    %al,(%eax)
    8aa6:	00 00                	add    %al,(%eax)
    8aa8:	00 00                	add    %al,(%eax)
    8aaa:	00 00                	add    %al,(%eax)
    8aac:	00 00                	add    %al,(%eax)
    8aae:	00 00                	add    %al,(%eax)
    8ab0:	00 00                	add    %al,(%eax)
    8ab2:	00 00                	add    %al,(%eax)
    8ab4:	00 00                	add    %al,(%eax)
    8ab6:	00 00                	add    %al,(%eax)
    8ab8:	00 00                	add    %al,(%eax)
    8aba:	00 00                	add    %al,(%eax)
    8abc:	00 00                	add    %al,(%eax)
    8abe:	00 00                	add    %al,(%eax)
    8ac0:	00 00                	add    %al,(%eax)
    8ac2:	00 00                	add    %al,(%eax)
    8ac4:	00 00                	add    %al,(%eax)
    8ac6:	00 00                	add    %al,(%eax)
    8ac8:	00 00                	add    %al,(%eax)
    8aca:	00 00                	add    %al,(%eax)
    8acc:	00 00                	add    %al,(%eax)
    8ace:	00 00                	add    %al,(%eax)
    8ad0:	00 00                	add    %al,(%eax)
    8ad2:	00 00                	add    %al,(%eax)
    8ad4:	00 00                	add    %al,(%eax)
    8ad6:	00 00                	add    %al,(%eax)
    8ad8:	00 00                	add    %al,(%eax)
    8ada:	00 00                	add    %al,(%eax)
    8adc:	00 00                	add    %al,(%eax)
    8ade:	00 00                	add    %al,(%eax)
    8ae0:	00 00                	add    %al,(%eax)
    8ae2:	00 00                	add    %al,(%eax)
    8ae4:	00 00                	add    %al,(%eax)
    8ae6:	00 00                	add    %al,(%eax)
    8ae8:	00 00                	add    %al,(%eax)
    8aea:	00 00                	add    %al,(%eax)
    8aec:	00 00                	add    %al,(%eax)
    8aee:	00 00                	add    %al,(%eax)
    8af0:	00 00                	add    %al,(%eax)
    8af2:	00 00                	add    %al,(%eax)
    8af4:	00 00                	add    %al,(%eax)
    8af6:	00 00                	add    %al,(%eax)
    8af8:	00 00                	add    %al,(%eax)
    8afa:	00 00                	add    %al,(%eax)
    8afc:	00 00                	add    %al,(%eax)
    8afe:	00 00                	add    %al,(%eax)
    8b00:	00 00                	add    %al,(%eax)
    8b02:	00 00                	add    %al,(%eax)
    8b04:	00 00                	add    %al,(%eax)
    8b06:	00 00                	add    %al,(%eax)
    8b08:	00 00                	add    %al,(%eax)
    8b0a:	00 00                	add    %al,(%eax)
    8b0c:	00 00                	add    %al,(%eax)

00008b0e <putc>:
 */
volatile char *video = (volatile char*) 0xB8000;

void
putc (int l, int color, char ch)
{
    8b0e:	55                   	push   %ebp
    8b0f:	e8 9f 02 00 00       	call   8db3 <__x86.get_pc_thunk.dx>
    8b14:	81 c2 98 07 00 00    	add    $0x798,%edx
    8b1a:	89 e5                	mov    %esp,%ebp
    8b1c:	8b 45 08             	mov    0x8(%ebp),%eax
	volatile char * p = video + l * 2;
    8b1f:	01 c0                	add    %eax,%eax
    8b21:	03 82 34 00 00 00    	add    0x34(%edx),%eax
	* p = ch;
    8b27:	8b 55 10             	mov    0x10(%ebp),%edx
    8b2a:	88 10                	mov    %dl,(%eax)
	* (p + 1) = color;
    8b2c:	8b 55 0c             	mov    0xc(%ebp),%edx
    8b2f:	88 50 01             	mov    %dl,0x1(%eax)
}
    8b32:	5d                   	pop    %ebp
    8b33:	c3                   	ret    

00008b34 <puts>:


int
puts (int r, int c, int color, const char *string)
{
    8b34:	55                   	push   %ebp
    8b35:	89 e5                	mov    %esp,%ebp
    8b37:	56                   	push   %esi
    8b38:	53                   	push   %ebx
	int l = r * 80 + c;
    8b39:	6b 75 08 50          	imul   $0x50,0x8(%ebp),%esi
{
    8b3d:	8b 4d 10             	mov    0x10(%ebp),%ecx
	int l = r * 80 + c;
    8b40:	03 75 0c             	add    0xc(%ebp),%esi
    8b43:	89 f0                	mov    %esi,%eax
	while (*string != 0)
    8b45:	8b 55 14             	mov    0x14(%ebp),%edx
    8b48:	29 f2                	sub    %esi,%edx
    8b4a:	0f be 14 02          	movsbl (%edx,%eax,1),%edx
    8b4e:	84 d2                	test   %dl,%dl
    8b50:	74 12                	je     8b64 <puts+0x30>
	{
		putc (l++, color, *string++);
    8b52:	52                   	push   %edx
    8b53:	8d 58 01             	lea    0x1(%eax),%ebx
    8b56:	51                   	push   %ecx
    8b57:	50                   	push   %eax
    8b58:	e8 b1 ff ff ff       	call   8b0e <putc>
    8b5d:	83 c4 0c             	add    $0xc,%esp
    8b60:	89 d8                	mov    %ebx,%eax
    8b62:	eb e1                	jmp    8b45 <puts+0x11>
	}
	return l;
}
    8b64:	8d 65 f8             	lea    -0x8(%ebp),%esp
    8b67:	5b                   	pop    %ebx
    8b68:	5e                   	pop    %esi
    8b69:	5d                   	pop    %ebp
    8b6a:	c3                   	ret    

00008b6b <putline>:
char * blank =
"                                                                                ";

void
putline (char * s)
{
    8b6b:	e8 3f 02 00 00       	call   8daf <__x86.get_pc_thunk.ax>
    8b70:	05 3c 07 00 00       	add    $0x73c,%eax
    8b75:	55                   	push   %ebp
	puts (row = (row >= CRT_ROWS) ? 0 : row + 1, 0, VGA_CLR_BLACK, blank);
    8b76:	8b 90 dc 00 00 00    	mov    0xdc(%eax),%edx
    8b7c:	8b 88 38 00 00 00    	mov    0x38(%eax),%ecx
{
    8b82:	89 e5                	mov    %esp,%ebp
    8b84:	53                   	push   %ebx
	puts (row = (row >= CRT_ROWS) ? 0 : row + 1, 0, VGA_CLR_BLACK, blank);
    8b85:	83 fa 18             	cmp    $0x18,%edx
    8b88:	8d 5a 01             	lea    0x1(%edx),%ebx
    8b8b:	7e 02                	jle    8b8f <putline+0x24>
    8b8d:	31 db                	xor    %ebx,%ebx
    8b8f:	51                   	push   %ecx
    8b90:	6a 00                	push   $0x0
    8b92:	6a 00                	push   $0x0
    8b94:	53                   	push   %ebx
    8b95:	89 98 dc 00 00 00    	mov    %ebx,0xdc(%eax)
    8b9b:	e8 94 ff ff ff       	call   8b34 <puts>
	puts (row, 0, VGA_CLR_WHITE, s);
    8ba0:	ff 75 08             	pushl  0x8(%ebp)
    8ba3:	6a 0f                	push   $0xf
    8ba5:	6a 00                	push   $0x0
    8ba7:	53                   	push   %ebx
    8ba8:	e8 87 ff ff ff       	call   8b34 <puts>
}
    8bad:	83 c4 20             	add    $0x20,%esp
    8bb0:	8b 5d fc             	mov    -0x4(%ebp),%ebx
    8bb3:	c9                   	leave  
    8bb4:	c3                   	ret    

00008bb5 <roll>:

void
roll (int r)
{
    8bb5:	55                   	push   %ebp
    8bb6:	e8 f4 01 00 00       	call   8daf <__x86.get_pc_thunk.ax>
    8bbb:	05 f1 06 00 00       	add    $0x6f1,%eax
    8bc0:	89 e5                	mov    %esp,%ebp
	row = r;
    8bc2:	8b 55 08             	mov    0x8(%ebp),%edx
}
    8bc5:	5d                   	pop    %ebp
	row = r;
    8bc6:	89 90 dc 00 00 00    	mov    %edx,0xdc(%eax)
}
    8bcc:	c3                   	ret    

00008bcd <panic>:

void
panic (char * m)
{
    8bcd:	55                   	push   %ebp
    8bce:	89 e5                	mov    %esp,%ebp
	puts (0, 0, VGA_CLR_RED, m);
    8bd0:	ff 75 08             	pushl  0x8(%ebp)
    8bd3:	6a 04                	push   $0x4
    8bd5:	6a 00                	push   $0x0
    8bd7:	6a 00                	push   $0x0
    8bd9:	e8 56 ff ff ff       	call   8b34 <puts>
    8bde:	83 c4 10             	add    $0x10,%esp
	while (1)
	{
		asm volatile("hlt");
    8be1:	f4                   	hlt    
    8be2:	eb fd                	jmp    8be1 <panic+0x14>

00008be4 <strlen>:
 * string
 */

int
strlen (const char *s)
{
    8be4:	55                   	push   %ebp
	int n;

	for (n = 0; *s != '\0'; s++)
    8be5:	31 c0                	xor    %eax,%eax
{
    8be7:	89 e5                	mov    %esp,%ebp
    8be9:	8b 55 08             	mov    0x8(%ebp),%edx
	for (n = 0; *s != '\0'; s++)
    8bec:	80 3c 02 00          	cmpb   $0x0,(%edx,%eax,1)
    8bf0:	74 03                	je     8bf5 <strlen+0x11>
		n++;
    8bf2:	40                   	inc    %eax
    8bf3:	eb f7                	jmp    8bec <strlen+0x8>
	return n;
}
    8bf5:	5d                   	pop    %ebp
    8bf6:	c3                   	ret    

00008bf7 <reverse>:

/* reverse:  reverse string s in place */
void
reverse (char s[])
{
    8bf7:	55                   	push   %ebp
    8bf8:	89 e5                	mov    %esp,%ebp
    8bfa:	56                   	push   %esi
    8bfb:	53                   	push   %ebx
    8bfc:	8b 4d 08             	mov    0x8(%ebp),%ecx
	int i, j;
	char c;

	for (i = 0, j = strlen (s) - 1; i < j; i++, j--)
    8bff:	51                   	push   %ecx
    8c00:	e8 df ff ff ff       	call   8be4 <strlen>
    8c05:	5a                   	pop    %edx
    8c06:	48                   	dec    %eax
    8c07:	31 d2                	xor    %edx,%edx
    8c09:	39 c2                	cmp    %eax,%edx
    8c0b:	7d 13                	jge    8c20 <reverse+0x29>
	{
		c = s[i];
    8c0d:	0f b6 34 11          	movzbl (%ecx,%edx,1),%esi
		s[i] = s[j];
    8c11:	8a 1c 01             	mov    (%ecx,%eax,1),%bl
    8c14:	88 1c 11             	mov    %bl,(%ecx,%edx,1)
	for (i = 0, j = strlen (s) - 1; i < j; i++, j--)
    8c17:	42                   	inc    %edx
		s[j] = c;
    8c18:	89 f3                	mov    %esi,%ebx
    8c1a:	88 1c 01             	mov    %bl,(%ecx,%eax,1)
	for (i = 0, j = strlen (s) - 1; i < j; i++, j--)
    8c1d:	48                   	dec    %eax
    8c1e:	eb e9                	jmp    8c09 <reverse+0x12>
	}
}
    8c20:	8d 65 f8             	lea    -0x8(%ebp),%esp
    8c23:	5b                   	pop    %ebx
    8c24:	5e                   	pop    %esi
    8c25:	5d                   	pop    %ebp
    8c26:	c3                   	ret    

00008c27 <itox>:

/* itoa:  convert n to characters in s */
void
itox (int n, char s[], int root, char * table)
{
    8c27:	55                   	push   %ebp
    8c28:	89 e5                	mov    %esp,%ebp
    8c2a:	57                   	push   %edi
    8c2b:	56                   	push   %esi
    8c2c:	53                   	push   %ebx
    8c2d:	31 db                	xor    %ebx,%ebx
    8c2f:	83 ec 08             	sub    $0x8,%esp
    8c32:	8b 45 08             	mov    0x8(%ebp),%eax
    8c35:	8b 4d 0c             	mov    0xc(%ebp),%ecx
    8c38:	8b 75 14             	mov    0x14(%ebp),%esi
    8c3b:	89 45 f0             	mov    %eax,-0x10(%ebp)
    8c3e:	8b 45 10             	mov    0x10(%ebp),%eax
    8c41:	8b 55 f0             	mov    -0x10(%ebp),%edx
    8c44:	89 45 ec             	mov    %eax,-0x14(%ebp)
    8c47:	8b 45 f0             	mov    -0x10(%ebp),%eax
    8c4a:	c1 fa 1f             	sar    $0x1f,%edx
    8c4d:	31 d0                	xor    %edx,%eax
    8c4f:	29 d0                	sub    %edx,%eax
    8c51:	99                   	cltd   
	if ((sign = n) < 0) /* record sign */
		n = -n; /* make n positive */
	i = 0;
	do
	{ /* generate digits in reverse order */
		s[i++] = table[n % root]; /* get next digit */
    8c52:	8d 7b 01             	lea    0x1(%ebx),%edi
    8c55:	f7 7d ec             	idivl  -0x14(%ebp)
    8c58:	8a 14 16             	mov    (%esi,%edx,1),%dl
	} while ((n /= root) > 0); /* delete it */
    8c5b:	85 c0                	test   %eax,%eax
		s[i++] = table[n % root]; /* get next digit */
    8c5d:	88 54 39 ff          	mov    %dl,-0x1(%ecx,%edi,1)
    8c61:	89 fa                	mov    %edi,%edx
	} while ((n /= root) > 0); /* delete it */
    8c63:	7e 04                	jle    8c69 <itox+0x42>
		s[i++] = table[n % root]; /* get next digit */
    8c65:	89 fb                	mov    %edi,%ebx
    8c67:	eb e8                	jmp    8c51 <itox+0x2a>
	if (sign < 0)
    8c69:	83 7d f0 00          	cmpl   $0x0,-0x10(%ebp)
    8c6d:	79 07                	jns    8c76 <itox+0x4f>
		s[i++] = '-';
    8c6f:	8d 7b 02             	lea    0x2(%ebx),%edi
    8c72:	c6 04 11 2d          	movb   $0x2d,(%ecx,%edx,1)
	s[i] = '\0';
    8c76:	c6 04 39 00          	movb   $0x0,(%ecx,%edi,1)
	reverse (s);
    8c7a:	89 4d 08             	mov    %ecx,0x8(%ebp)
}
    8c7d:	58                   	pop    %eax
    8c7e:	5a                   	pop    %edx
    8c7f:	5b                   	pop    %ebx
    8c80:	5e                   	pop    %esi
    8c81:	5f                   	pop    %edi
    8c82:	5d                   	pop    %ebp
	reverse (s);
    8c83:	e9 6f ff ff ff       	jmp    8bf7 <reverse>

00008c88 <itoa>:

void
itoa (int n, char s[])
{
    8c88:	e8 22 01 00 00       	call   8daf <__x86.get_pc_thunk.ax>
    8c8d:	05 1f 06 00 00       	add    $0x61f,%eax
    8c92:	55                   	push   %ebp
	static char dec[] = "0123456789";
	itox(n, s, 10, dec);
    8c93:	8d 80 28 00 00 00    	lea    0x28(%eax),%eax
{
    8c99:	89 e5                	mov    %esp,%ebp
	itox(n, s, 10, dec);
    8c9b:	50                   	push   %eax
    8c9c:	6a 0a                	push   $0xa
    8c9e:	ff 75 0c             	pushl  0xc(%ebp)
    8ca1:	ff 75 08             	pushl  0x8(%ebp)
    8ca4:	e8 7e ff ff ff       	call   8c27 <itox>
}
    8ca9:	83 c4 10             	add    $0x10,%esp
    8cac:	c9                   	leave  
    8cad:	c3                   	ret    

00008cae <itoh>:


void
itoh (int n, char* s)
{
    8cae:	e8 fc 00 00 00       	call   8daf <__x86.get_pc_thunk.ax>
    8cb3:	05 f9 05 00 00       	add    $0x5f9,%eax
    8cb8:	55                   	push   %ebp
	static char hex[] = "0123456789abcdef";
	itox(n, s, 16, hex);
    8cb9:	8d 80 14 00 00 00    	lea    0x14(%eax),%eax
{
    8cbf:	89 e5                	mov    %esp,%ebp
	itox(n, s, 16, hex);
    8cc1:	50                   	push   %eax
    8cc2:	6a 10                	push   $0x10
    8cc4:	ff 75 0c             	pushl  0xc(%ebp)
    8cc7:	ff 75 08             	pushl  0x8(%ebp)
    8cca:	e8 58 ff ff ff       	call   8c27 <itox>
}
    8ccf:	83 c4 10             	add    $0x10,%esp
    8cd2:	c9                   	leave  
    8cd3:	c3                   	ret    

00008cd4 <puti>:
{
    8cd4:	55                   	push   %ebp
    8cd5:	e8 d5 00 00 00       	call   8daf <__x86.get_pc_thunk.ax>
    8cda:	05 d2 05 00 00       	add    $0x5d2,%eax
    8cdf:	89 e5                	mov    %esp,%ebp
    8ce1:	53                   	push   %ebx
	itoh (i, puti_str);
    8ce2:	8d 98 b4 00 00 00    	lea    0xb4(%eax),%ebx
    8ce8:	53                   	push   %ebx
    8ce9:	ff 75 08             	pushl  0x8(%ebp)
    8cec:	e8 bd ff ff ff       	call   8cae <itoh>
	putline (puti_str);
    8cf1:	58                   	pop    %eax
    8cf2:	5a                   	pop    %edx
    8cf3:	89 5d 08             	mov    %ebx,0x8(%ebp)
}
    8cf6:	8b 5d fc             	mov    -0x4(%ebp),%ebx
    8cf9:	c9                   	leave  
	putline (puti_str);
    8cfa:	e9 6c fe ff ff       	jmp    8b6b <putline>

00008cff <readsector>:
		/* do nothing */;
}

void
readsector (void *dst, uint32_t offset)
{
    8cff:	55                   	push   %ebp
    8d00:	89 e5                	mov    %esp,%ebp
    8d02:	57                   	push   %edi

static inline uint8_t
inb(int port)
{
	uint8_t data;
	__asm __volatile("inb %w1,%0" : "=a" (data) : "d" (port));
    8d03:	bf f7 01 00 00       	mov    $0x1f7,%edi
    8d08:	8b 4d 0c             	mov    0xc(%ebp),%ecx
    8d0b:	89 fa                	mov    %edi,%edx
    8d0d:	ec                   	in     (%dx),%al
	while ((inb (0x1F7) & 0xC0) != 0x40)
    8d0e:	83 e0 c0             	and    $0xffffffc0,%eax
    8d11:	3c 40                	cmp    $0x40,%al
    8d13:	75 f6                	jne    8d0b <readsector+0xc>
	__asm __volatile("outb %0,%w1" : : "a" (data), "d" (port));
    8d15:	b0 01                	mov    $0x1,%al
    8d17:	ba f2 01 00 00       	mov    $0x1f2,%edx
    8d1c:	ee                   	out    %al,(%dx)
    8d1d:	ba f3 01 00 00       	mov    $0x1f3,%edx
    8d22:	88 c8                	mov    %cl,%al
    8d24:	ee                   	out    %al,(%dx)
	// wait for disk to be ready
	waitdisk ();

	outb (0x1F2, 1);		// count = 1
	outb (0x1F3, offset);
	outb (0x1F4, offset >> 8);
    8d25:	89 c8                	mov    %ecx,%eax
    8d27:	ba f4 01 00 00       	mov    $0x1f4,%edx
    8d2c:	c1 e8 08             	shr    $0x8,%eax
    8d2f:	ee                   	out    %al,(%dx)
	outb (0x1F5, offset >> 16);
    8d30:	89 c8                	mov    %ecx,%eax
    8d32:	ba f5 01 00 00       	mov    $0x1f5,%edx
    8d37:	c1 e8 10             	shr    $0x10,%eax
    8d3a:	ee                   	out    %al,(%dx)
	outb (0x1F6, (offset >> 24) | 0xE0);
    8d3b:	89 c8                	mov    %ecx,%eax
    8d3d:	ba f6 01 00 00       	mov    $0x1f6,%edx
    8d42:	c1 e8 18             	shr    $0x18,%eax
    8d45:	83 c8 e0             	or     $0xffffffe0,%eax
    8d48:	ee                   	out    %al,(%dx)
    8d49:	b0 20                	mov    $0x20,%al
    8d4b:	89 fa                	mov    %edi,%edx
    8d4d:	ee                   	out    %al,(%dx)
	__asm __volatile("inb %w1,%0" : "=a" (data) : "d" (port));
    8d4e:	ba f7 01 00 00       	mov    $0x1f7,%edx
    8d53:	ec                   	in     (%dx),%al
	while ((inb (0x1F7) & 0xC0) != 0x40)
    8d54:	83 e0 c0             	and    $0xffffffc0,%eax
    8d57:	3c 40                	cmp    $0x40,%al
    8d59:	75 f8                	jne    8d53 <readsector+0x54>
}

static inline void
insl(int port, void *addr, int cnt)
{
	__asm __volatile("cld\n\trepne\n\tinsl"			:
    8d5b:	8b 7d 08             	mov    0x8(%ebp),%edi
    8d5e:	b9 80 00 00 00       	mov    $0x80,%ecx
    8d63:	ba f0 01 00 00       	mov    $0x1f0,%edx
    8d68:	fc                   	cld    
    8d69:	f2 6d                	repnz insl (%dx),%es:(%edi)
	// wait for disk to be ready
	waitdisk ();

	// read a sector
	insl (0x1F0, dst, SECTOR_SIZE / 4);
}
    8d6b:	5f                   	pop    %edi
    8d6c:	5d                   	pop    %ebp
    8d6d:	c3                   	ret    

00008d6e <readsection>:

// Read 'count' bytes at 'offset' from kernel into virtual address 'va'.
// Might copy more than asked
void
readsection (uint32_t va, uint32_t count, uint32_t offset, uint32_t lba)
{
    8d6e:	55                   	push   %ebp
    8d6f:	89 e5                	mov    %esp,%ebp
    8d71:	57                   	push   %edi
    8d72:	56                   	push   %esi
    8d73:	53                   	push   %ebx
    8d74:	8b 5d 08             	mov    0x8(%ebp),%ebx
	end_va = va + count;
	// round down to sector boundary
	va &= ~(SECTOR_SIZE - 1);

	// translate from bytes to sectors, and kernel starts at sector 1
	offset = (offset / SECTOR_SIZE) + lba;
    8d77:	8b 7d 10             	mov    0x10(%ebp),%edi
	va &= 0xFFFFFF;
    8d7a:	89 de                	mov    %ebx,%esi
	va &= ~(SECTOR_SIZE - 1);
    8d7c:	81 e3 00 fe ff 00    	and    $0xfffe00,%ebx
	va &= 0xFFFFFF;
    8d82:	81 e6 ff ff ff 00    	and    $0xffffff,%esi
	offset = (offset / SECTOR_SIZE) + lba;
    8d88:	c1 ef 09             	shr    $0x9,%edi
	end_va = va + count;
    8d8b:	03 75 0c             	add    0xc(%ebp),%esi
	offset = (offset / SECTOR_SIZE) + lba;
    8d8e:	03 7d 14             	add    0x14(%ebp),%edi

	// If this is too slow, we could read lots of sectors at a time.
	// We'd write more to memory than asked, but it doesn't matter --
	// we load in increasing order.
	while (va < end_va)
    8d91:	39 f3                	cmp    %esi,%ebx
    8d93:	73 12                	jae    8da7 <readsection+0x39>
	{
		readsector ((uint8_t*) va, offset);
    8d95:	57                   	push   %edi
    8d96:	53                   	push   %ebx
		va += SECTOR_SIZE;
		offset++;
    8d97:	47                   	inc    %edi
		va += SECTOR_SIZE;
    8d98:	81 c3 00 02 00 00    	add    $0x200,%ebx
		readsector ((uint8_t*) va, offset);
    8d9e:	e8 5c ff ff ff       	call   8cff <readsector>
		offset++;
    8da3:	58                   	pop    %eax
    8da4:	5a                   	pop    %edx
    8da5:	eb ea                	jmp    8d91 <readsection+0x23>
	}
}
    8da7:	8d 65 f4             	lea    -0xc(%ebp),%esp
    8daa:	5b                   	pop    %ebx
    8dab:	5e                   	pop    %esi
    8dac:	5f                   	pop    %edi
    8dad:	5d                   	pop    %ebp
    8dae:	c3                   	ret    

00008daf <__x86.get_pc_thunk.ax>:
    8daf:	8b 04 24             	mov    (%esp),%eax
    8db2:	c3                   	ret    

00008db3 <__x86.get_pc_thunk.dx>:
    8db3:	8b 14 24             	mov    (%esp),%edx
    8db6:	c3                   	ret    

00008db7 <load_kernel>:

#define ELFHDR      ((elfhdr *) 0x20000)

uint32_t
load_kernel(uint32_t dkernel) // dkernel is the first_lba field of the partition table entry of the bootable partition
{
    8db7:	55                   	push   %ebp
    8db8:	89 e5                	mov    %esp,%ebp
    8dba:	57                   	push   %edi
    8dbb:	56                   	push   %esi
    8dbc:	53                   	push   %ebx
    8dbd:	e8 83 01 00 00       	call   8f45 <__x86.get_pc_thunk.bx>
    8dc2:	81 c3 ea 04 00 00    	add    $0x4ea,%ebx
    8dc8:	83 ec 0c             	sub    $0xc,%esp
    // load kernel from the beginning of the first bootable partition
    proghdr *ph, *eph;

    readsection((uint32_t) ELFHDR, SECTOR_SIZE * 8, 0, dkernel);
    8dcb:	ff 75 08             	pushl  0x8(%ebp)
    8dce:	6a 00                	push   $0x0
    8dd0:	68 00 10 00 00       	push   $0x1000
    8dd5:	68 00 00 02 00       	push   $0x20000
    8dda:	e8 8f ff ff ff       	call   8d6e <readsection>

    // is this a valid ELF?
    if (ELFHDR->e_magic != ELF_MAGIC)
    8ddf:	83 c4 10             	add    $0x10,%esp
    8de2:	81 3d 00 00 02 00 7f 	cmpl   $0x464c457f,0x20000
    8de9:	45 4c 46 
    8dec:	74 12                	je     8e00 <load_kernel+0x49>
        panic ("Kernel is not a valid elf.");
    8dee:	8d 83 fe fc ff ff    	lea    -0x302(%ebx),%eax
    8df4:	83 ec 0c             	sub    $0xc,%esp
    8df7:	50                   	push   %eax
    8df8:	e8 d0 fd ff ff       	call   8bcd <panic>
    8dfd:	83 c4 10             	add    $0x10,%esp

    // load each program segment (ignores ph flags)
    ph = (proghdr *) ((uint8_t *) ELFHDR + ELFHDR->e_phoff);
    8e00:	a1 1c 00 02 00       	mov    0x2001c,%eax
    eph = ph + ELFHDR->e_phnum;
    8e05:	0f b7 35 2c 00 02 00 	movzwl 0x2002c,%esi
    ph = (proghdr *) ((uint8_t *) ELFHDR + ELFHDR->e_phoff);
    8e0c:	8d b8 00 00 02 00    	lea    0x20000(%eax),%edi
    eph = ph + ELFHDR->e_phnum;
    8e12:	c1 e6 05             	shl    $0x5,%esi
    8e15:	01 fe                	add    %edi,%esi

    for (; ph < eph; ph++)
    8e17:	39 f7                	cmp    %esi,%edi
    8e19:	73 19                	jae    8e34 <load_kernel+0x7d>
    {
        readsection(ph->p_va, ph->p_memsz, ph->p_offset, dkernel);
    8e1b:	ff 75 08             	pushl  0x8(%ebp)
    8e1e:	ff 77 04             	pushl  0x4(%edi)
    for (; ph < eph; ph++)
    8e21:	83 c7 20             	add    $0x20,%edi
        readsection(ph->p_va, ph->p_memsz, ph->p_offset, dkernel);
    8e24:	ff 77 f4             	pushl  -0xc(%edi)
    8e27:	ff 77 e8             	pushl  -0x18(%edi)
    8e2a:	e8 3f ff ff ff       	call   8d6e <readsection>
    for (; ph < eph; ph++)
    8e2f:	83 c4 10             	add    $0x10,%esp
    8e32:	eb e3                	jmp    8e17 <load_kernel+0x60>
    }

    return (ELFHDR->e_entry & 0xFFFFFF);
    8e34:	a1 18 00 02 00       	mov    0x20018,%eax
}
    8e39:	8d 65 f4             	lea    -0xc(%ebp),%esp
    8e3c:	5b                   	pop    %ebx
    return (ELFHDR->e_entry & 0xFFFFFF);
    8e3d:	25 ff ff ff 00       	and    $0xffffff,%eax
}
    8e42:	5e                   	pop    %esi
    8e43:	5f                   	pop    %edi
    8e44:	5d                   	pop    %ebp
    8e45:	c3                   	ret    

00008e46 <parse_e820>:

mboot_info_t *
parse_e820 (bios_smap_t *smap)
{
    8e46:	55                   	push   %ebp
    8e47:	89 e5                	mov    %esp,%ebp
    8e49:	57                   	push   %edi
    8e4a:	56                   	push   %esi
    8e4b:	53                   	push   %ebx
    bios_smap_t *p;
    uint32_t mmap_len;
    p = smap;
    mmap_len = 0;
    8e4c:	31 f6                	xor    %esi,%esi
    8e4e:	e8 f2 00 00 00       	call   8f45 <__x86.get_pc_thunk.bx>
    8e53:	81 c3 59 04 00 00    	add    $0x459,%ebx
{
    8e59:	83 ec 18             	sub    $0x18,%esp
    8e5c:	8b 7d 08             	mov    0x8(%ebp),%edi
    putline ("* E820 Memory Map *");
    8e5f:	8d 83 19 fd ff ff    	lea    -0x2e7(%ebx),%eax
    8e65:	50                   	push   %eax
    8e66:	e8 00 fd ff ff       	call   8b6b <putline>
    while (p->base_addr != 0 || p->length != 0 || p->type != 0)
    8e6b:	83 c4 10             	add    $0x10,%esp
    8e6e:	8b 44 37 04          	mov    0x4(%edi,%esi,1),%eax
    8e72:	89 c1                	mov    %eax,%ecx
    8e74:	0b 4c 37 08          	or     0x8(%edi,%esi,1),%ecx
    8e78:	74 11                	je     8e8b <parse_e820+0x45>
    {
        puti (p->base_addr);
    8e7a:	83 ec 0c             	sub    $0xc,%esp
        p ++;
        mmap_len += sizeof(bios_smap_t);
    8e7d:	83 c6 18             	add    $0x18,%esi
        puti (p->base_addr);
    8e80:	50                   	push   %eax
    8e81:	e8 4e fe ff ff       	call   8cd4 <puti>
        mmap_len += sizeof(bios_smap_t);
    8e86:	83 c4 10             	add    $0x10,%esp
    8e89:	eb e3                	jmp    8e6e <parse_e820+0x28>
    while (p->base_addr != 0 || p->length != 0 || p->type != 0)
    8e8b:	8b 54 37 10          	mov    0x10(%edi,%esi,1),%edx
    8e8f:	0b 54 37 0c          	or     0xc(%edi,%esi,1),%edx
    8e93:	75 e5                	jne    8e7a <parse_e820+0x34>
    8e95:	83 7c 37 14 00       	cmpl   $0x0,0x14(%edi,%esi,1)
    8e9a:	75 de                	jne    8e7a <parse_e820+0x34>
    }
    mboot_info.mmap_length = mmap_len;
    8e9c:	89 b3 80 00 00 00    	mov    %esi,0x80(%ebx)
    mboot_info.mmap_addr = (uint32_t) smap;
    8ea2:	89 bb 84 00 00 00    	mov    %edi,0x84(%ebx)
    return &mboot_info;
    8ea8:	8d 65 f4             	lea    -0xc(%ebp),%esp
    8eab:	8d 83 54 00 00 00    	lea    0x54(%ebx),%eax
    8eb1:	5b                   	pop    %ebx
    8eb2:	5e                   	pop    %esi
    8eb3:	5f                   	pop    %edi
    8eb4:	5d                   	pop    %ebp
    8eb5:	c3                   	ret    

00008eb6 <boot1main>:
{
    8eb6:	55                   	push   %ebp
    8eb7:	89 e5                	mov    %esp,%ebp
    8eb9:	57                   	push   %edi
    8eba:	56                   	push   %esi
    8ebb:	53                   	push   %ebx
    for(int m = 0; m < 4; m++){//4 entries
    8ebc:	31 f6                	xor    %esi,%esi
    8ebe:	e8 82 00 00 00       	call   8f45 <__x86.get_pc_thunk.bx>
    8ec3:	81 c3 e9 03 00 00    	add    $0x3e9,%ebx
{
    8ec9:	83 ec 18             	sub    $0x18,%esp
    8ecc:	8b 7d 08             	mov    0x8(%ebp),%edi
    roll(10);
    8ecf:	6a 0a                	push   $0xa
    8ed1:	e8 df fc ff ff       	call   8bb5 <roll>
    putline("Start boot1 main ...");
    8ed6:	8d 83 2d fd ff ff    	lea    -0x2d3(%ebx),%eax
    8edc:	89 04 24             	mov    %eax,(%esp)
    8edf:	e8 87 fc ff ff       	call   8b6b <putline>
    8ee4:	83 c4 10             	add    $0x10,%esp
        if(mbr->partition[m].bootable != BOOTABLE_PARTITION) {
    8ee7:	89 f0                	mov    %esi,%eax
    8ee9:	c1 e0 04             	shl    $0x4,%eax
    8eec:	80 bc 07 be 01 00 00 	cmpb   $0x80,0x1be(%edi,%eax,1)
    8ef3:	80 
    8ef4:	75 2f                	jne    8f25 <boot1main+0x6f>
            parse_e820(smap);//parse the mem map
    8ef6:	83 ec 0c             	sub    $0xc,%esp
    8ef9:	ff 75 0c             	pushl  0xc(%ebp)
            exec_kernel(load_kernel(mbr->partition[m].first_lba), &mboot_info);//prepare the parameter then execute the kernel with the right parameters
    8efc:	83 c6 1b             	add    $0x1b,%esi
    8eff:	c1 e6 04             	shl    $0x4,%esi
            parse_e820(smap);//parse the mem map
    8f02:	e8 3f ff ff ff       	call   8e46 <parse_e820>
            exec_kernel(load_kernel(mbr->partition[m].first_lba), &mboot_info);//prepare the parameter then execute the kernel with the right parameters
    8f07:	58                   	pop    %eax
    8f08:	ff 74 37 16          	pushl  0x16(%edi,%esi,1)
    8f0c:	e8 a6 fe ff ff       	call   8db7 <load_kernel>
    8f11:	5a                   	pop    %edx
    8f12:	8d 93 54 00 00 00    	lea    0x54(%ebx),%edx
    8f18:	59                   	pop    %ecx
    8f19:	52                   	push   %edx
    8f1a:	50                   	push   %eax
    8f1b:	e8 29 00 00 00       	call   8f49 <exec_kernel>
            break;//If the bootable field of a partition is equal to BOOTABLE_PARTITION, then it is bootable.
    8f20:	83 c4 10             	add    $0x10,%esp
    8f23:	eb 06                	jmp    8f2b <boot1main+0x75>
    for(int m = 0; m < 4; m++){//4 entries
    8f25:	46                   	inc    %esi
    8f26:	83 fe 04             	cmp    $0x4,%esi
    8f29:	75 bc                	jne    8ee7 <boot1main+0x31>
    panic ("Fail to load kernel.");
    8f2b:	8d 83 42 fd ff ff    	lea    -0x2be(%ebx),%eax
    8f31:	83 ec 0c             	sub    $0xc,%esp
    8f34:	50                   	push   %eax
    8f35:	e8 93 fc ff ff       	call   8bcd <panic>
}
    8f3a:	83 c4 10             	add    $0x10,%esp
    8f3d:	8d 65 f4             	lea    -0xc(%ebp),%esp
    8f40:	5b                   	pop    %ebx
    8f41:	5e                   	pop    %esi
    8f42:	5f                   	pop    %edi
    8f43:	5d                   	pop    %ebp
    8f44:	c3                   	ret    

00008f45 <__x86.get_pc_thunk.bx>:
    8f45:	8b 1c 24             	mov    (%esp),%ebx
    8f48:	c3                   	ret    

00008f49 <exec_kernel>:
	.set  MBOOT_INFO_MAGIC, 0x2badb002

	.globl	exec_kernel
	.code32
exec_kernel:
	cli
    8f49:	fa                   	cli    
	movl	$MBOOT_INFO_MAGIC, %eax
    8f4a:	b8 02 b0 ad 2b       	mov    $0x2badb002,%eax
	movl	8(%esp), %ebx
    8f4f:	8b 5c 24 08          	mov    0x8(%esp),%ebx
	movl	4(%esp), %edx
    8f53:	8b 54 24 04          	mov    0x4(%esp),%edx
	jmp	*%edx
    8f57:	ff e2                	jmp    *%edx
